
NODO_CONTROLADOR_RECEPTOR.elf:     file format elf32-avr

Sections:
Idx Name          Size      VMA       LMA       File off  Algn
  0 .data         00000018  00800200  000031f8  0000328c  2**0
                  CONTENTS, ALLOC, LOAD, DATA
  1 .text         000031f8  00000000  00000000  00000094  2**1
                  CONTENTS, ALLOC, LOAD, READONLY, CODE
  2 .bss          000052a0  00800218  00800218  000032a4  2**0
                  ALLOC
  3 .comment      00000030  00000000  00000000  000032a4  2**0
                  CONTENTS, READONLY
  4 .note.gnu.avr.deviceinfo 00000040  00000000  00000000  000032d4  2**2
                  CONTENTS, READONLY
  5 .debug_aranges 00000820  00000000  00000000  00003314  2**0
                  CONTENTS, READONLY, DEBUGGING
  6 .debug_info   0000ccbb  00000000  00000000  00003b34  2**0
                  CONTENTS, READONLY, DEBUGGING
  7 .debug_abbrev 00004d86  00000000  00000000  000107ef  2**0
                  CONTENTS, READONLY, DEBUGGING
  8 .debug_line   0000f7bb  00000000  00000000  00015575  2**0
                  CONTENTS, READONLY, DEBUGGING
  9 .debug_frame  00001b44  00000000  00000000  00024d30  2**2
                  CONTENTS, READONLY, DEBUGGING
 10 .debug_str    00020651  00000000  00000000  00026874  2**0
                  CONTENTS, READONLY, DEBUGGING
 11 .debug_loc    000078dc  00000000  00000000  00046ec5  2**0
                  CONTENTS, READONLY, DEBUGGING
 12 .debug_ranges 000007c0  00000000  00000000  0004e7a1  2**0
                  CONTENTS, READONLY, DEBUGGING
 13 .debug_macro  0000c038  00000000  00000000  0004ef61  2**0
                  CONTENTS, READONLY, DEBUGGING

Disassembly of section .text:

00000000 <__vectors>:
       0:	b8 c0       	rjmp	.+368    	; 0x172 <__ctors_end>
       2:	00 00       	nop
       4:	d7 c0       	rjmp	.+430    	; 0x1b4 <__bad_interrupt>
       6:	00 00       	nop
       8:	d5 c0       	rjmp	.+426    	; 0x1b4 <__bad_interrupt>
       a:	00 00       	nop
       c:	d3 c0       	rjmp	.+422    	; 0x1b4 <__bad_interrupt>
       e:	00 00       	nop
      10:	d1 c0       	rjmp	.+418    	; 0x1b4 <__bad_interrupt>
      12:	00 00       	nop
      14:	cf c0       	rjmp	.+414    	; 0x1b4 <__bad_interrupt>
      16:	00 00       	nop
      18:	cd c0       	rjmp	.+410    	; 0x1b4 <__bad_interrupt>
      1a:	00 00       	nop
      1c:	cb c0       	rjmp	.+406    	; 0x1b4 <__bad_interrupt>
      1e:	00 00       	nop
      20:	c9 c0       	rjmp	.+402    	; 0x1b4 <__bad_interrupt>
      22:	00 00       	nop
      24:	c7 c0       	rjmp	.+398    	; 0x1b4 <__bad_interrupt>
      26:	00 00       	nop
      28:	c5 c0       	rjmp	.+394    	; 0x1b4 <__bad_interrupt>
      2a:	00 00       	nop
      2c:	c3 c0       	rjmp	.+390    	; 0x1b4 <__bad_interrupt>
      2e:	00 00       	nop
      30:	c1 c0       	rjmp	.+386    	; 0x1b4 <__bad_interrupt>
      32:	00 00       	nop
      34:	bf c0       	rjmp	.+382    	; 0x1b4 <__bad_interrupt>
      36:	00 00       	nop
      38:	bd c0       	rjmp	.+378    	; 0x1b4 <__bad_interrupt>
      3a:	00 00       	nop
      3c:	bb c0       	rjmp	.+374    	; 0x1b4 <__bad_interrupt>
      3e:	00 00       	nop
      40:	b9 c0       	rjmp	.+370    	; 0x1b4 <__bad_interrupt>
      42:	00 00       	nop
      44:	0c 94 72 12 	jmp	0x24e4	; 0x24e4 <__vector_17>
      48:	0c 94 9f 12 	jmp	0x253e	; 0x253e <__vector_18>
      4c:	0c 94 cc 12 	jmp	0x2598	; 0x2598 <__vector_19>
      50:	0c 94 45 12 	jmp	0x248a	; 0x248a <__vector_20>
      54:	af c0       	rjmp	.+350    	; 0x1b4 <__bad_interrupt>
      56:	00 00       	nop
      58:	ad c0       	rjmp	.+346    	; 0x1b4 <__bad_interrupt>
      5a:	00 00       	nop
      5c:	ab c0       	rjmp	.+342    	; 0x1b4 <__bad_interrupt>
      5e:	00 00       	nop
      60:	a9 c0       	rjmp	.+338    	; 0x1b4 <__bad_interrupt>
      62:	00 00       	nop
      64:	a7 c0       	rjmp	.+334    	; 0x1b4 <__bad_interrupt>
      66:	00 00       	nop
      68:	a5 c0       	rjmp	.+330    	; 0x1b4 <__bad_interrupt>
      6a:	00 00       	nop
      6c:	a3 c0       	rjmp	.+326    	; 0x1b4 <__bad_interrupt>
      6e:	00 00       	nop
      70:	a1 c0       	rjmp	.+322    	; 0x1b4 <__bad_interrupt>
      72:	00 00       	nop
      74:	9f c0       	rjmp	.+318    	; 0x1b4 <__bad_interrupt>
      76:	00 00       	nop
      78:	9d c0       	rjmp	.+314    	; 0x1b4 <__bad_interrupt>
      7a:	00 00       	nop
      7c:	9b c0       	rjmp	.+310    	; 0x1b4 <__bad_interrupt>
      7e:	00 00       	nop
      80:	0c 94 26 13 	jmp	0x264c	; 0x264c <__vector_32>
      84:	0c 94 53 13 	jmp	0x26a6	; 0x26a6 <__vector_33>
      88:	0c 94 80 13 	jmp	0x2700	; 0x2700 <__vector_34>
      8c:	0c 94 f9 12 	jmp	0x25f2	; 0x25f2 <__vector_35>
      90:	9a c3       	rjmp	.+1844   	; 0x7c6 <__vector_36>
      92:	00 00       	nop
      94:	8f c0       	rjmp	.+286    	; 0x1b4 <__bad_interrupt>
      96:	00 00       	nop
      98:	8d c0       	rjmp	.+282    	; 0x1b4 <__bad_interrupt>
      9a:	00 00       	nop
      9c:	8b c0       	rjmp	.+278    	; 0x1b4 <__bad_interrupt>
      9e:	00 00       	nop
      a0:	89 c0       	rjmp	.+274    	; 0x1b4 <__bad_interrupt>
      a2:	00 00       	nop
      a4:	87 c0       	rjmp	.+270    	; 0x1b4 <__bad_interrupt>
      a6:	00 00       	nop
      a8:	0c 94 da 13 	jmp	0x27b4	; 0x27b4 <__vector_42>
      ac:	0c 94 07 14 	jmp	0x280e	; 0x280e <__vector_43>
      b0:	0c 94 34 14 	jmp	0x2868	; 0x2868 <__vector_44>
      b4:	0c 94 ad 13 	jmp	0x275a	; 0x275a <__vector_45>
      b8:	7d c0       	rjmp	.+250    	; 0x1b4 <__bad_interrupt>
      ba:	00 00       	nop
      bc:	0c 94 8e 14 	jmp	0x291c	; 0x291c <__vector_47>
      c0:	0c 94 bb 14 	jmp	0x2976	; 0x2976 <__vector_48>
      c4:	0c 94 e8 14 	jmp	0x29d0	; 0x29d0 <__vector_49>
      c8:	0c 94 61 14 	jmp	0x28c2	; 0x28c2 <__vector_50>
      cc:	73 c0       	rjmp	.+230    	; 0x1b4 <__bad_interrupt>
      ce:	00 00       	nop
      d0:	71 c0       	rjmp	.+226    	; 0x1b4 <__bad_interrupt>
      d2:	00 00       	nop
      d4:	6f c0       	rjmp	.+222    	; 0x1b4 <__bad_interrupt>
      d6:	00 00       	nop
      d8:	6d c0       	rjmp	.+218    	; 0x1b4 <__bad_interrupt>
      da:	00 00       	nop
      dc:	6b c0       	rjmp	.+214    	; 0x1b4 <__bad_interrupt>
      de:	00 00       	nop
      e0:	69 c0       	rjmp	.+210    	; 0x1b4 <__bad_interrupt>
      e2:	00 00       	nop
      e4:	0c 94 f2 0c 	jmp	0x19e4	; 0x19e4 <__vector_57>
      e8:	0c 94 fc 0c 	jmp	0x19f8	; 0x19f8 <__vector_58>
      ec:	0c 94 e8 0c 	jmp	0x19d0	; 0x19d0 <__vector_59>
      f0:	0c 94 67 0c 	jmp	0x18ce	; 0x18ce <__vector_60>
      f4:	0c 94 92 0c 	jmp	0x1924	; 0x1924 <__vector_61>
      f8:	0c 94 06 0d 	jmp	0x1a0c	; 0x1a0c <__vector_62>
      fc:	0c 94 3c 0c 	jmp	0x1878	; 0x1878 <__vector_63>
     100:	0c 94 bd 0c 	jmp	0x197a	; 0x197a <__vector_64>
     104:	57 c0       	rjmp	.+174    	; 0x1b4 <__bad_interrupt>
     106:	00 00       	nop
     108:	55 c0       	rjmp	.+170    	; 0x1b4 <__bad_interrupt>
     10a:	00 00       	nop
     10c:	53 c0       	rjmp	.+166    	; 0x1b4 <__bad_interrupt>
     10e:	00 00       	nop
     110:	51 c0       	rjmp	.+162    	; 0x1b4 <__bad_interrupt>
     112:	00 00       	nop
     114:	4f c0       	rjmp	.+158    	; 0x1b4 <__bad_interrupt>
     116:	00 00       	nop
     118:	0c 94 1a 0d 	jmp	0x1a34	; 0x1a34 <__vector_70>
     11c:	0c 94 10 0d 	jmp	0x1a20	; 0x1a20 <__vector_71>
     120:	0c 94 24 0d 	jmp	0x1a48	; 0x1a48 <__vector_72>
     124:	0c 94 2e 0d 	jmp	0x1a5c	; 0x1a5c <__vector_73>
     128:	0c 94 38 0d 	jmp	0x1a70	; 0x1a70 <__vector_74>
     12c:	0c 94 42 0d 	jmp	0x1a84	; 0x1a84 <__vector_75>
     130:	0c 94 4c 0d 	jmp	0x1a98	; 0x1a98 <__vector_76>
     134:	bf 09       	sbc	r27, r15
     136:	e6 09       	sbc	r30, r6
     138:	da 09       	sbc	r29, r10
     13a:	f3 09       	sbc	r31, r3
     13c:	da 09       	sbc	r29, r10
     13e:	b2 09       	sbc	r27, r2
     140:	cc 09       	sbc	r28, r12
     142:	da 09       	sbc	r29, r10
     144:	da 09       	sbc	r29, r10
     146:	da 09       	sbc	r29, r10
     148:	da 09       	sbc	r29, r10
     14a:	da 09       	sbc	r29, r10
     14c:	86 09       	sbc	r24, r6
     14e:	da 09       	sbc	r29, r10
     150:	da 09       	sbc	r29, r10
     152:	da 09       	sbc	r29, r10
     154:	da 09       	sbc	r29, r10
     156:	da 09       	sbc	r29, r10
     158:	da 09       	sbc	r29, r10
     15a:	12 0a       	sbc	r1, r18
     15c:	da 09       	sbc	r29, r10
     15e:	da 09       	sbc	r29, r10
     160:	4b 0a       	sbc	r4, r27

00000162 <__trampolines_end>:
     162:	04 03       	mulsu	r16, r20
     164:	03 02       	muls	r16, r19
     166:	02 01       	movw	r0, r4
     168:	00 ff       	sbrs	r16, 0
     16a:	fe fd       	.word	0xfdfe	; ????
     16c:	fc fb       	.word	0xfbfc	; ????
     16e:	f9 f7       	brne	.-2      	; 0x16e <__trampolines_end+0xc>
     170:	f4 ef       	ldi	r31, 0xF4	; 244

00000172 <__ctors_end>:
     172:	11 24       	eor	r1, r1
     174:	1f be       	out	0x3f, r1	; 63
     176:	cf ef       	ldi	r28, 0xFF	; 255
     178:	d1 e8       	ldi	r29, 0x81	; 129
     17a:	de bf       	out	0x3e, r29	; 62
     17c:	cd bf       	out	0x3d, r28	; 61
     17e:	00 e0       	ldi	r16, 0x00	; 0
     180:	0c bf       	out	0x3c, r16	; 60

00000182 <__do_copy_data>:
     182:	12 e0       	ldi	r17, 0x02	; 2
     184:	a0 e0       	ldi	r26, 0x00	; 0
     186:	b2 e0       	ldi	r27, 0x02	; 2
     188:	e8 ef       	ldi	r30, 0xF8	; 248
     18a:	f1 e3       	ldi	r31, 0x31	; 49
     18c:	00 e0       	ldi	r16, 0x00	; 0
     18e:	0b bf       	out	0x3b, r16	; 59
     190:	02 c0       	rjmp	.+4      	; 0x196 <__do_copy_data+0x14>
     192:	07 90       	elpm	r0, Z+
     194:	0d 92       	st	X+, r0
     196:	a8 31       	cpi	r26, 0x18	; 24
     198:	b1 07       	cpc	r27, r17
     19a:	d9 f7       	brne	.-10     	; 0x192 <__do_copy_data+0x10>

0000019c <__do_clear_bss>:
     19c:	24 e5       	ldi	r18, 0x54	; 84
     19e:	a8 e1       	ldi	r26, 0x18	; 24
     1a0:	b2 e0       	ldi	r27, 0x02	; 2
     1a2:	01 c0       	rjmp	.+2      	; 0x1a6 <.do_clear_bss_start>

000001a4 <.do_clear_bss_loop>:
     1a4:	1d 92       	st	X+, r1

000001a6 <.do_clear_bss_start>:
     1a6:	a8 3b       	cpi	r26, 0xB8	; 184
     1a8:	b2 07       	cpc	r27, r18
     1aa:	e1 f7       	brne	.-8      	; 0x1a4 <.do_clear_bss_loop>
     1ac:	0e 94 43 16 	call	0x2c86	; 0x2c86 <main>
     1b0:	0c 94 fa 18 	jmp	0x31f4	; 0x31f4 <_exit>

000001b4 <__bad_interrupt>:
     1b4:	25 cf       	rjmp	.-438    	; 0x0 <__vectors>

000001b6 <common_tc_read_count>:
     1b6:	0e 94 ed 11 	call	0x23da	; 0x23da <tmr_read_count>
     1ba:	20 91 1c 02 	lds	r18, 0x021C	; 0x80021c <timer_mul_var>
     1be:	22 23       	and	r18, r18
     1c0:	d9 f0       	breq	.+54     	; 0x1f8 <common_tc_read_count+0x42>
     1c2:	40 91 ad 54 	lds	r20, 0x54AD	; 0x8054ad <timer_multiplier>
     1c6:	30 e0       	ldi	r19, 0x00	; 0
     1c8:	20 91 1c 02 	lds	r18, 0x021C	; 0x80021c <timer_mul_var>
     1cc:	64 2f       	mov	r22, r20
     1ce:	73 2f       	mov	r23, r19
     1d0:	0e 94 6c 16 	call	0x2cd8	; 0x2cd8 <__udivmodhi4>
     1d4:	fb 01       	movw	r30, r22
     1d6:	8f ef       	ldi	r24, 0xFF	; 255
     1d8:	9f ef       	ldi	r25, 0xFF	; 255
     1da:	64 2f       	mov	r22, r20
     1dc:	73 2f       	mov	r23, r19
     1de:	0e 94 6c 16 	call	0x2cd8	; 0x2cd8 <__udivmodhi4>
     1e2:	30 e0       	ldi	r19, 0x00	; 0
     1e4:	62 9f       	mul	r22, r18
     1e6:	c0 01       	movw	r24, r0
     1e8:	63 9f       	mul	r22, r19
     1ea:	90 0d       	add	r25, r0
     1ec:	72 9f       	mul	r23, r18
     1ee:	90 0d       	add	r25, r0
     1f0:	11 24       	eor	r1, r1
     1f2:	8e 0f       	add	r24, r30
     1f4:	9f 1f       	adc	r25, r31
     1f6:	08 95       	ret
     1f8:	60 91 ad 54 	lds	r22, 0x54AD	; 0x8054ad <timer_multiplier>
     1fc:	70 e0       	ldi	r23, 0x00	; 0
     1fe:	0e 94 6c 16 	call	0x2cd8	; 0x2cd8 <__udivmodhi4>
     202:	cb 01       	movw	r24, r22
     204:	08 95       	ret

00000206 <common_tc_compare_stop>:
     206:	0e 94 f2 11 	call	0x23e4	; 0x23e4 <tmr_disable_cc_interrupt>
     20a:	0e 94 16 12 	call	0x242c	; 0x242c <save_cpu_interrupt>
     20e:	10 92 18 02 	sts	0x0218, r1	; 0x800218 <__data_end>
     212:	10 92 19 02 	sts	0x0219, r1	; 0x800219 <__data_end+0x1>
     216:	10 92 1a 02 	sts	0x021A, r1	; 0x80021a <__data_end+0x2>
     21a:	10 92 1b 02 	sts	0x021B, r1	; 0x80021b <__data_end+0x3>
     21e:	10 92 1e 02 	sts	0x021E, r1	; 0x80021e <compare_value+0x1>
     222:	10 92 1d 02 	sts	0x021D, r1	; 0x80021d <compare_value>
     226:	0c 94 23 12 	jmp	0x2446	; 0x2446 <restore_cpu_interrupt>

0000022a <common_tc_overflow_stop>:
     22a:	0e 94 00 12 	call	0x2400	; 0x2400 <tmr_disable_ovf_interrupt>
     22e:	10 92 1c 02 	sts	0x021C, r1	; 0x80021c <timer_mul_var>
     232:	08 95       	ret

00000234 <common_tc_stop>:
     234:	e8 df       	rcall	.-48     	; 0x206 <common_tc_compare_stop>
     236:	f9 df       	rcall	.-14     	; 0x22a <common_tc_overflow_stop>
     238:	0c 94 07 12 	jmp	0x240e	; 0x240e <tmr_stop>

0000023c <common_tc_delay>:
     23c:	0f 93       	push	r16
     23e:	1f 93       	push	r17
     240:	cf 93       	push	r28
     242:	df 93       	push	r29
     244:	ec 01       	movw	r28, r24
     246:	0e 94 ed 11 	call	0x23da	; 0x23da <tmr_read_count>
     24a:	8c 01       	movw	r16, r24
     24c:	be 01       	movw	r22, r28
     24e:	80 e0       	ldi	r24, 0x00	; 0
     250:	90 e0       	ldi	r25, 0x00	; 0
     252:	20 91 ad 54 	lds	r18, 0x54AD	; 0x8054ad <timer_multiplier>
     256:	30 e0       	ldi	r19, 0x00	; 0
     258:	40 e0       	ldi	r20, 0x00	; 0
     25a:	50 e0       	ldi	r21, 0x00	; 0
     25c:	0e 94 5d 16 	call	0x2cba	; 0x2cba <__mulsi3>
     260:	dc 01       	movw	r26, r24
     262:	cb 01       	movw	r24, r22
     264:	a8 01       	movw	r20, r16
     266:	60 e0       	ldi	r22, 0x00	; 0
     268:	70 e0       	ldi	r23, 0x00	; 0
     26a:	48 0f       	add	r20, r24
     26c:	59 1f       	adc	r21, r25
     26e:	6a 1f       	adc	r22, r26
     270:	7b 1f       	adc	r23, r27
     272:	40 93 18 02 	sts	0x0218, r20	; 0x800218 <__data_end>
     276:	50 93 19 02 	sts	0x0219, r21	; 0x800219 <__data_end+0x1>
     27a:	60 93 1a 02 	sts	0x021A, r22	; 0x80021a <__data_end+0x2>
     27e:	70 93 1b 02 	sts	0x021B, r23	; 0x80021b <__data_end+0x3>
     282:	40 91 18 02 	lds	r20, 0x0218	; 0x800218 <__data_end>
     286:	50 91 19 02 	lds	r21, 0x0219	; 0x800219 <__data_end+0x1>
     28a:	60 91 1a 02 	lds	r22, 0x021A	; 0x80021a <__data_end+0x2>
     28e:	70 91 1b 02 	lds	r23, 0x021B	; 0x80021b <__data_end+0x3>
     292:	ab 01       	movw	r20, r22
     294:	66 27       	eor	r22, r22
     296:	77 27       	eor	r23, r23
     298:	40 93 18 02 	sts	0x0218, r20	; 0x800218 <__data_end>
     29c:	50 93 19 02 	sts	0x0219, r21	; 0x800219 <__data_end+0x1>
     2a0:	60 93 1a 02 	sts	0x021A, r22	; 0x80021a <__data_end+0x2>
     2a4:	70 93 1b 02 	sts	0x021B, r23	; 0x80021b <__data_end+0x3>
     2a8:	40 91 18 02 	lds	r20, 0x0218	; 0x800218 <__data_end>
     2ac:	50 91 19 02 	lds	r21, 0x0219	; 0x800219 <__data_end+0x1>
     2b0:	60 91 1a 02 	lds	r22, 0x021A	; 0x80021a <__data_end+0x2>
     2b4:	70 91 1b 02 	lds	r23, 0x021B	; 0x80021b <__data_end+0x3>
     2b8:	41 15       	cp	r20, r1
     2ba:	51 05       	cpc	r21, r1
     2bc:	61 05       	cpc	r22, r1
     2be:	71 05       	cpc	r23, r1
     2c0:	91 f0       	breq	.+36     	; 0x2e6 <common_tc_delay+0xaa>
     2c2:	40 91 18 02 	lds	r20, 0x0218	; 0x800218 <__data_end>
     2c6:	50 91 19 02 	lds	r21, 0x0219	; 0x800219 <__data_end+0x1>
     2ca:	60 91 1a 02 	lds	r22, 0x021A	; 0x80021a <__data_end+0x2>
     2ce:	70 91 1b 02 	lds	r23, 0x021B	; 0x80021b <__data_end+0x3>
     2d2:	01 96       	adiw	r24, 0x01	; 1
     2d4:	08 0f       	add	r16, r24
     2d6:	19 1f       	adc	r17, r25
     2d8:	10 93 1e 02 	sts	0x021E, r17	; 0x80021e <compare_value+0x1>
     2dc:	00 93 1d 02 	sts	0x021D, r16	; 0x80021d <compare_value>
     2e0:	0e 94 f2 11 	call	0x23e4	; 0x23e4 <tmr_disable_cc_interrupt>
     2e4:	08 c0       	rjmp	.+16     	; 0x2f6 <common_tc_delay+0xba>
     2e6:	08 0f       	add	r16, r24
     2e8:	19 1f       	adc	r17, r25
     2ea:	10 93 1e 02 	sts	0x021E, r17	; 0x80021e <compare_value+0x1>
     2ee:	00 93 1d 02 	sts	0x021D, r16	; 0x80021d <compare_value>
     2f2:	0e 94 f9 11 	call	0x23f2	; 0x23f2 <tmr_enable_cc_interrupt>
     2f6:	80 91 1d 02 	lds	r24, 0x021D	; 0x80021d <compare_value>
     2fa:	90 91 1e 02 	lds	r25, 0x021E	; 0x80021e <compare_value+0x1>
     2fe:	84 36       	cpi	r24, 0x64	; 100
     300:	91 05       	cpc	r25, r1
     302:	30 f4       	brcc	.+12     	; 0x310 <common_tc_delay+0xd4>
     304:	8c 59       	subi	r24, 0x9C	; 156
     306:	9f 4f       	sbci	r25, 0xFF	; 255
     308:	90 93 1e 02 	sts	0x021E, r25	; 0x80021e <compare_value+0x1>
     30c:	80 93 1d 02 	sts	0x021D, r24	; 0x80021d <compare_value>
     310:	80 91 1d 02 	lds	r24, 0x021D	; 0x80021d <compare_value>
     314:	90 91 1e 02 	lds	r25, 0x021E	; 0x80021e <compare_value+0x1>
     318:	0e 94 0b 12 	call	0x2416	; 0x2416 <tmr_write_cmpreg>
     31c:	df 91       	pop	r29
     31e:	cf 91       	pop	r28
     320:	1f 91       	pop	r17
     322:	0f 91       	pop	r16
     324:	08 95       	ret

00000326 <common_tc_init>:
     326:	10 92 1c 02 	sts	0x021C, r1	; 0x80021c <timer_mul_var>
     32a:	0e 94 25 12 	call	0x244a	; 0x244a <tmr_init>
     32e:	80 93 ad 54 	sts	0x54AD, r24	; 0x8054ad <timer_multiplier>
     332:	08 95       	ret

00000334 <tmr_ovf_callback>:
     334:	80 91 18 02 	lds	r24, 0x0218	; 0x800218 <__data_end>
     338:	90 91 19 02 	lds	r25, 0x0219	; 0x800219 <__data_end+0x1>
     33c:	a0 91 1a 02 	lds	r26, 0x021A	; 0x80021a <__data_end+0x2>
     340:	b0 91 1b 02 	lds	r27, 0x021B	; 0x80021b <__data_end+0x3>
     344:	00 97       	sbiw	r24, 0x00	; 0
     346:	a1 05       	cpc	r26, r1
     348:	b1 05       	cpc	r27, r1
     34a:	c9 f0       	breq	.+50     	; 0x37e <tmr_ovf_callback+0x4a>
     34c:	80 91 18 02 	lds	r24, 0x0218	; 0x800218 <__data_end>
     350:	90 91 19 02 	lds	r25, 0x0219	; 0x800219 <__data_end+0x1>
     354:	a0 91 1a 02 	lds	r26, 0x021A	; 0x80021a <__data_end+0x2>
     358:	b0 91 1b 02 	lds	r27, 0x021B	; 0x80021b <__data_end+0x3>
     35c:	01 97       	sbiw	r24, 0x01	; 1
     35e:	a1 09       	sbc	r26, r1
     360:	b1 09       	sbc	r27, r1
     362:	80 93 18 02 	sts	0x0218, r24	; 0x800218 <__data_end>
     366:	90 93 19 02 	sts	0x0219, r25	; 0x800219 <__data_end+0x1>
     36a:	a0 93 1a 02 	sts	0x021A, r26	; 0x80021a <__data_end+0x2>
     36e:	b0 93 1b 02 	sts	0x021B, r27	; 0x80021b <__data_end+0x3>
     372:	00 97       	sbiw	r24, 0x00	; 0
     374:	a1 05       	cpc	r26, r1
     376:	b1 05       	cpc	r27, r1
     378:	11 f4       	brne	.+4      	; 0x37e <tmr_ovf_callback+0x4a>
     37a:	0e 94 f9 11 	call	0x23f2	; 0x23f2 <tmr_enable_cc_interrupt>
     37e:	80 91 1c 02 	lds	r24, 0x021C	; 0x80021c <timer_mul_var>
     382:	8f 5f       	subi	r24, 0xFF	; 255
     384:	80 93 1c 02 	sts	0x021C, r24	; 0x80021c <timer_mul_var>
     388:	90 91 ad 54 	lds	r25, 0x54AD	; 0x8054ad <timer_multiplier>
     38c:	89 17       	cp	r24, r25
     38e:	48 f0       	brcs	.+18     	; 0x3a2 <tmr_ovf_callback+0x6e>
     390:	10 92 1c 02 	sts	0x021C, r1	; 0x80021c <timer_mul_var>
     394:	e0 91 1f 02 	lds	r30, 0x021F	; 0x80021f <common_tc_ovf_callback>
     398:	f0 91 20 02 	lds	r31, 0x0220	; 0x800220 <common_tc_ovf_callback+0x1>
     39c:	30 97       	sbiw	r30, 0x00	; 0
     39e:	09 f0       	breq	.+2      	; 0x3a2 <tmr_ovf_callback+0x6e>
     3a0:	19 95       	eicall
     3a2:	08 95       	ret

000003a4 <tmr_cca_callback>:
     3a4:	0e 94 f2 11 	call	0x23e4	; 0x23e4 <tmr_disable_cc_interrupt>
     3a8:	e0 91 21 02 	lds	r30, 0x0221	; 0x800221 <common_tc_cca_callback>
     3ac:	f0 91 22 02 	lds	r31, 0x0222	; 0x800222 <common_tc_cca_callback+0x1>
     3b0:	30 97       	sbiw	r30, 0x00	; 0
     3b2:	09 f0       	breq	.+2      	; 0x3b6 <tmr_cca_callback+0x12>
     3b4:	19 95       	eicall
     3b6:	08 95       	ret

000003b8 <set_common_tc_overflow_callback>:
     3b8:	90 93 20 02 	sts	0x0220, r25	; 0x800220 <common_tc_ovf_callback+0x1>
     3bc:	80 93 1f 02 	sts	0x021F, r24	; 0x80021f <common_tc_ovf_callback>
     3c0:	08 95       	ret

000003c2 <set_common_tc_expiry_callback>:
     3c2:	90 93 22 02 	sts	0x0222, r25	; 0x800222 <common_tc_cca_callback+0x1>
     3c6:	80 93 21 02 	sts	0x0221, r24	; 0x800221 <common_tc_cca_callback>
     3ca:	08 95       	ret

000003cc <usart_serial_write_packet>:
     3cc:	ef 92       	push	r14
     3ce:	ff 92       	push	r15
     3d0:	0f 93       	push	r16
     3d2:	1f 93       	push	r17
     3d4:	cf 93       	push	r28
     3d6:	df 93       	push	r29
     3d8:	7c 01       	movw	r14, r24
     3da:	8b 01       	movw	r16, r22
     3dc:	ea 01       	movw	r28, r20
     3de:	20 97       	sbiw	r28, 0x00	; 0
     3e0:	39 f0       	breq	.+14     	; 0x3f0 <usart_serial_write_packet+0x24>
     3e2:	f8 01       	movw	r30, r16
     3e4:	61 91       	ld	r22, Z+
     3e6:	8f 01       	movw	r16, r30
     3e8:	c7 01       	movw	r24, r14
     3ea:	4f d0       	rcall	.+158    	; 0x48a <usart_putchar>
     3ec:	21 97       	sbiw	r28, 0x01	; 1
     3ee:	c9 f7       	brne	.-14     	; 0x3e2 <usart_serial_write_packet+0x16>
     3f0:	80 e0       	ldi	r24, 0x00	; 0
     3f2:	df 91       	pop	r29
     3f4:	cf 91       	pop	r28
     3f6:	1f 91       	pop	r17
     3f8:	0f 91       	pop	r16
     3fa:	ff 90       	pop	r15
     3fc:	ef 90       	pop	r14
     3fe:	08 95       	ret

00000400 <usart_serial_read_packet>:
     400:	ef 92       	push	r14
     402:	ff 92       	push	r15
     404:	0f 93       	push	r16
     406:	1f 93       	push	r17
     408:	cf 93       	push	r28
     40a:	df 93       	push	r29
     40c:	7c 01       	movw	r14, r24
     40e:	8b 01       	movw	r16, r22
     410:	ea 01       	movw	r28, r20
     412:	20 97       	sbiw	r28, 0x00	; 0
     414:	39 f0       	breq	.+14     	; 0x424 <usart_serial_read_packet+0x24>
     416:	c7 01       	movw	r24, r14
     418:	3f d0       	rcall	.+126    	; 0x498 <usart_getchar>
     41a:	f8 01       	movw	r30, r16
     41c:	81 93       	st	Z+, r24
     41e:	8f 01       	movw	r16, r30
     420:	21 97       	sbiw	r28, 0x01	; 1
     422:	c9 f7       	brne	.-14     	; 0x416 <usart_serial_read_packet+0x16>
     424:	80 e0       	ldi	r24, 0x00	; 0
     426:	df 91       	pop	r29
     428:	cf 91       	pop	r28
     42a:	1f 91       	pop	r17
     42c:	0f 91       	pop	r16
     42e:	ff 90       	pop	r15
     430:	ef 90       	pop	r14
     432:	08 95       	ret

00000434 <_read>:
     434:	cf 93       	push	r28
     436:	df 93       	push	r29
     438:	1f 92       	push	r1
     43a:	cd b7       	in	r28, 0x3d	; 61
     43c:	de b7       	in	r29, 0x3e	; 62
     43e:	80 91 af 05 	lds	r24, 0x05AF	; 0x8005af <stdio_base>
     442:	90 91 b0 05 	lds	r25, 0x05B0	; 0x8005b0 <stdio_base+0x1>
     446:	e0 91 ab 05 	lds	r30, 0x05AB	; 0x8005ab <ptr_get>
     44a:	f0 91 ac 05 	lds	r31, 0x05AC	; 0x8005ac <ptr_get+0x1>
     44e:	be 01       	movw	r22, r28
     450:	6f 5f       	subi	r22, 0xFF	; 255
     452:	7f 4f       	sbci	r23, 0xFF	; 255
     454:	19 95       	eicall
     456:	89 81       	ldd	r24, Y+1	; 0x01
     458:	08 2e       	mov	r0, r24
     45a:	00 0c       	add	r0, r0
     45c:	99 0b       	sbc	r25, r25
     45e:	0f 90       	pop	r0
     460:	df 91       	pop	r29
     462:	cf 91       	pop	r28
     464:	08 95       	ret

00000466 <_write>:
     466:	68 2f       	mov	r22, r24
     468:	80 91 af 05 	lds	r24, 0x05AF	; 0x8005af <stdio_base>
     46c:	90 91 b0 05 	lds	r25, 0x05B0	; 0x8005b0 <stdio_base+0x1>
     470:	e0 91 ad 05 	lds	r30, 0x05AD	; 0x8005ad <ptr_put>
     474:	f0 91 ae 05 	lds	r31, 0x05AE	; 0x8005ae <ptr_put+0x1>
     478:	19 95       	eicall
     47a:	99 23       	and	r25, r25
     47c:	1c f0       	brlt	.+6      	; 0x484 <_write+0x1e>
     47e:	81 e0       	ldi	r24, 0x01	; 1
     480:	90 e0       	ldi	r25, 0x00	; 0
     482:	08 95       	ret
     484:	8f ef       	ldi	r24, 0xFF	; 255
     486:	9f ef       	ldi	r25, 0xFF	; 255
     488:	08 95       	ret

0000048a <usart_putchar>:
     48a:	fc 01       	movw	r30, r24
     48c:	90 81       	ld	r25, Z
     48e:	95 ff       	sbrs	r25, 5
     490:	fd cf       	rjmp	.-6      	; 0x48c <usart_putchar+0x2>
     492:	66 83       	std	Z+6, r22	; 0x06
     494:	80 e0       	ldi	r24, 0x00	; 0
     496:	08 95       	ret

00000498 <usart_getchar>:
     498:	fc 01       	movw	r30, r24
     49a:	90 81       	ld	r25, Z
     49c:	99 23       	and	r25, r25
     49e:	ec f7       	brge	.-6      	; 0x49a <usart_getchar+0x2>
     4a0:	86 81       	ldd	r24, Z+6	; 0x06
     4a2:	08 95       	ret

000004a4 <usart_set_baudrate>:
     4a4:	4f 92       	push	r4
     4a6:	5f 92       	push	r5
     4a8:	6f 92       	push	r6
     4aa:	7f 92       	push	r7
     4ac:	8f 92       	push	r8
     4ae:	9f 92       	push	r9
     4b0:	af 92       	push	r10
     4b2:	bf 92       	push	r11
     4b4:	cf 92       	push	r12
     4b6:	df 92       	push	r13
     4b8:	ef 92       	push	r14
     4ba:	ff 92       	push	r15
     4bc:	0f 93       	push	r16
     4be:	1f 93       	push	r17
     4c0:	cf 93       	push	r28
     4c2:	df 93       	push	r29
     4c4:	ec 01       	movw	r28, r24
     4c6:	6a 01       	movw	r12, r20
     4c8:	7b 01       	movw	r14, r22
     4ca:	28 01       	movw	r4, r16
     4cc:	39 01       	movw	r6, r18
     4ce:	68 94       	set
     4d0:	12 f8       	bld	r1, 2
     4d2:	76 94       	lsr	r7
     4d4:	67 94       	ror	r6
     4d6:	57 94       	ror	r5
     4d8:	47 94       	ror	r4
     4da:	16 94       	lsr	r1
     4dc:	d1 f7       	brne	.-12     	; 0x4d2 <usart_set_baudrate+0x2e>
     4de:	88 81       	ld	r24, Y
     4e0:	81 fd       	sbrc	r24, 1
     4e2:	0e c0       	rjmp	.+28     	; 0x500 <usart_set_baudrate+0x5c>
     4e4:	48 01       	movw	r8, r16
     4e6:	59 01       	movw	r10, r18
     4e8:	07 2e       	mov	r0, r23
     4ea:	73 e1       	ldi	r23, 0x13	; 19
     4ec:	b6 94       	lsr	r11
     4ee:	a7 94       	ror	r10
     4f0:	97 94       	ror	r9
     4f2:	87 94       	ror	r8
     4f4:	7a 95       	dec	r23
     4f6:	d1 f7       	brne	.-12     	; 0x4ec <usart_set_baudrate+0x48>
     4f8:	70 2d       	mov	r23, r0
     4fa:	d3 01       	movw	r26, r6
     4fc:	c2 01       	movw	r24, r4
     4fe:	15 c0       	rjmp	.+42     	; 0x52a <usart_set_baudrate+0x86>
     500:	d9 01       	movw	r26, r18
     502:	c8 01       	movw	r24, r16
     504:	68 94       	set
     506:	13 f8       	bld	r1, 3
     508:	b6 95       	lsr	r27
     50a:	a7 95       	ror	r26
     50c:	97 95       	ror	r25
     50e:	87 95       	ror	r24
     510:	16 94       	lsr	r1
     512:	d1 f7       	brne	.-12     	; 0x508 <usart_set_baudrate+0x64>
     514:	48 01       	movw	r8, r16
     516:	59 01       	movw	r10, r18
     518:	07 2e       	mov	r0, r23
     51a:	74 e1       	ldi	r23, 0x14	; 20
     51c:	b6 94       	lsr	r11
     51e:	a7 94       	ror	r10
     520:	97 94       	ror	r9
     522:	87 94       	ror	r8
     524:	7a 95       	dec	r23
     526:	d1 f7       	brne	.-12     	; 0x51c <usart_set_baudrate+0x78>
     528:	70 2d       	mov	r23, r0
     52a:	8c 15       	cp	r24, r12
     52c:	9d 05       	cpc	r25, r13
     52e:	ae 05       	cpc	r26, r14
     530:	bf 05       	cpc	r27, r15
     532:	78 f1       	brcs	.+94     	; 0x592 <usart_set_baudrate+0xee>
     534:	c8 14       	cp	r12, r8
     536:	d9 04       	cpc	r13, r9
     538:	ea 04       	cpc	r14, r10
     53a:	fb 04       	cpc	r15, r11
     53c:	60 f1       	brcs	.+88     	; 0x596 <usart_set_baudrate+0xf2>
     53e:	88 81       	ld	r24, Y
     540:	81 ff       	sbrs	r24, 1
     542:	10 c0       	rjmp	.+32     	; 0x564 <usart_set_baudrate+0xc0>
     544:	a7 01       	movw	r20, r14
     546:	96 01       	movw	r18, r12
     548:	22 0f       	add	r18, r18
     54a:	33 1f       	adc	r19, r19
     54c:	44 1f       	adc	r20, r20
     54e:	55 1f       	adc	r21, r21
     550:	c3 01       	movw	r24, r6
     552:	b2 01       	movw	r22, r4
     554:	0e 94 93 16 	call	0x2d26	; 0x2d26 <__udivmodsi4>
     558:	da 01       	movw	r26, r20
     55a:	c9 01       	movw	r24, r18
     55c:	01 97       	sbiw	r24, 0x01	; 1
     55e:	a1 09       	sbc	r26, r1
     560:	b1 09       	sbc	r27, r1
     562:	13 c0       	rjmp	.+38     	; 0x58a <usart_set_baudrate+0xe6>
     564:	c9 01       	movw	r24, r18
     566:	b8 01       	movw	r22, r16
     568:	68 94       	set
     56a:	13 f8       	bld	r1, 3
     56c:	96 95       	lsr	r25
     56e:	87 95       	ror	r24
     570:	77 95       	ror	r23
     572:	67 95       	ror	r22
     574:	16 94       	lsr	r1
     576:	d1 f7       	brne	.-12     	; 0x56c <usart_set_baudrate+0xc8>
     578:	a7 01       	movw	r20, r14
     57a:	96 01       	movw	r18, r12
     57c:	0e 94 93 16 	call	0x2d26	; 0x2d26 <__udivmodsi4>
     580:	da 01       	movw	r26, r20
     582:	c9 01       	movw	r24, r18
     584:	01 97       	sbiw	r24, 0x01	; 1
     586:	a1 09       	sbc	r26, r1
     588:	b1 09       	sbc	r27, r1
     58a:	9d 83       	std	Y+5, r25	; 0x05
     58c:	8c 83       	std	Y+4, r24	; 0x04
     58e:	81 e0       	ldi	r24, 0x01	; 1
     590:	03 c0       	rjmp	.+6      	; 0x598 <usart_set_baudrate+0xf4>
     592:	80 e0       	ldi	r24, 0x00	; 0
     594:	01 c0       	rjmp	.+2      	; 0x598 <usart_set_baudrate+0xf4>
     596:	80 e0       	ldi	r24, 0x00	; 0
     598:	df 91       	pop	r29
     59a:	cf 91       	pop	r28
     59c:	1f 91       	pop	r17
     59e:	0f 91       	pop	r16
     5a0:	ff 90       	pop	r15
     5a2:	ef 90       	pop	r14
     5a4:	df 90       	pop	r13
     5a6:	cf 90       	pop	r12
     5a8:	bf 90       	pop	r11
     5aa:	af 90       	pop	r10
     5ac:	9f 90       	pop	r9
     5ae:	8f 90       	pop	r8
     5b0:	7f 90       	pop	r7
     5b2:	6f 90       	pop	r6
     5b4:	5f 90       	pop	r5
     5b6:	4f 90       	pop	r4
     5b8:	08 95       	ret

000005ba <usart_init_rs232>:
     5ba:	0f 93       	push	r16
     5bc:	1f 93       	push	r17
     5be:	cf 93       	push	r28
     5c0:	df 93       	push	r29
     5c2:	ec 01       	movw	r28, r24
     5c4:	8b 01       	movw	r16, r22
     5c6:	80 3c       	cpi	r24, 0xC0	; 192
     5c8:	91 05       	cpc	r25, r1
     5ca:	21 f4       	brne	.+8      	; 0x5d4 <usart_init_rs232+0x1a>
     5cc:	62 e0       	ldi	r22, 0x02	; 2
     5ce:	80 e0       	ldi	r24, 0x00	; 0
     5d0:	73 d3       	rcall	.+1766   	; 0xcb8 <sysclk_enable_module>
     5d2:	06 c0       	rjmp	.+12     	; 0x5e0 <usart_init_rs232+0x26>
     5d4:	88 3c       	cpi	r24, 0xC8	; 200
     5d6:	91 05       	cpc	r25, r1
     5d8:	19 f4       	brne	.+6      	; 0x5e0 <usart_init_rs232+0x26>
     5da:	61 e0       	ldi	r22, 0x01	; 1
     5dc:	81 e0       	ldi	r24, 0x01	; 1
     5de:	6c d3       	rcall	.+1752   	; 0xcb8 <sysclk_enable_module>
     5e0:	8a 81       	ldd	r24, Y+2	; 0x02
     5e2:	8f 73       	andi	r24, 0x3F	; 63
     5e4:	8a 83       	std	Y+2, r24	; 0x02
     5e6:	f8 01       	movw	r30, r16
     5e8:	26 81       	ldd	r18, Z+6	; 0x06
     5ea:	35 81       	ldd	r19, Z+5	; 0x05
     5ec:	84 81       	ldd	r24, Z+4	; 0x04
     5ee:	9a 81       	ldd	r25, Y+2	; 0x02
     5f0:	48 2f       	mov	r20, r24
     5f2:	43 70       	andi	r20, 0x03	; 3
     5f4:	44 0f       	add	r20, r20
     5f6:	99 7f       	andi	r25, 0xF9	; 249
     5f8:	94 2b       	or	r25, r20
     5fa:	9a 83       	std	Y+2, r25	; 0x02
     5fc:	99 81       	ldd	r25, Y+1	; 0x01
     5fe:	84 70       	andi	r24, 0x04	; 4
     600:	88 0f       	add	r24, r24
     602:	88 0f       	add	r24, r24
     604:	9b 7f       	andi	r25, 0xFB	; 251
     606:	89 2b       	or	r24, r25
     608:	89 83       	std	Y+1, r24	; 0x01
     60a:	8a 81       	ldd	r24, Y+2	; 0x02
     60c:	8f 7c       	andi	r24, 0xCF	; 207
     60e:	83 2b       	or	r24, r19
     610:	8a 83       	std	Y+2, r24	; 0x02
     612:	9a 81       	ldd	r25, Y+2	; 0x02
     614:	97 7f       	andi	r25, 0xF7	; 247
     616:	82 2f       	mov	r24, r18
     618:	88 0f       	add	r24, r24
     61a:	88 0f       	add	r24, r24
     61c:	88 0f       	add	r24, r24
     61e:	89 2b       	or	r24, r25
     620:	8a 83       	std	Y+2, r24	; 0x02
     622:	40 81       	ld	r20, Z
     624:	51 81       	ldd	r21, Z+1	; 0x01
     626:	62 81       	ldd	r22, Z+2	; 0x02
     628:	73 81       	ldd	r23, Z+3	; 0x03
     62a:	00 e0       	ldi	r16, 0x00	; 0
     62c:	12 e1       	ldi	r17, 0x12	; 18
     62e:	2a e7       	ldi	r18, 0x7A	; 122
     630:	30 e0       	ldi	r19, 0x00	; 0
     632:	ce 01       	movw	r24, r28
     634:	37 df       	rcall	.-402    	; 0x4a4 <usart_set_baudrate>
     636:	99 81       	ldd	r25, Y+1	; 0x01
     638:	98 60       	ori	r25, 0x08	; 8
     63a:	99 83       	std	Y+1, r25	; 0x01
     63c:	99 81       	ldd	r25, Y+1	; 0x01
     63e:	90 61       	ori	r25, 0x10	; 16
     640:	99 83       	std	Y+1, r25	; 0x01
     642:	df 91       	pop	r29
     644:	cf 91       	pop	r28
     646:	1f 91       	pop	r17
     648:	0f 91       	pop	r16
     64a:	08 95       	ret

0000064c <usart_serial_getchar>:
     64c:	cf 93       	push	r28
     64e:	df 93       	push	r29
     650:	eb 01       	movw	r28, r22
     652:	22 df       	rcall	.-444    	; 0x498 <usart_getchar>
     654:	88 83       	st	Y, r24
     656:	df 91       	pop	r29
     658:	cf 91       	pop	r28
     65a:	08 95       	ret

0000065c <usart_serial_putchar>:
     65c:	16 cf       	rjmp	.-468    	; 0x48a <usart_putchar>
     65e:	08 95       	ret

00000660 <sio2host_init>:
     660:	0f 93       	push	r16
     662:	1f 93       	push	r17
     664:	cf 93       	push	r28
     666:	df 93       	push	r29
     668:	cd b7       	in	r28, 0x3d	; 61
     66a:	de b7       	in	r29, 0x3e	; 62
     66c:	27 97       	sbiw	r28, 0x07	; 7
     66e:	0f b6       	in	r0, 0x3f	; 63
     670:	f8 94       	cli
     672:	de bf       	out	0x3e, r29	; 62
     674:	0f be       	out	0x3f, r0	; 63
     676:	cd bf       	out	0x3d, r28	; 61
     678:	08 ec       	ldi	r16, 0xC8	; 200
     67a:	10 e0       	ldi	r17, 0x00	; 0
     67c:	10 93 b0 05 	sts	0x05B0, r17	; 0x8005b0 <stdio_base+0x1>
     680:	00 93 af 05 	sts	0x05AF, r16	; 0x8005af <stdio_base>
     684:	8e e2       	ldi	r24, 0x2E	; 46
     686:	93 e0       	ldi	r25, 0x03	; 3
     688:	90 93 ae 05 	sts	0x05AE, r25	; 0x8005ae <ptr_put+0x1>
     68c:	80 93 ad 05 	sts	0x05AD, r24	; 0x8005ad <ptr_put>
     690:	86 e2       	ldi	r24, 0x26	; 38
     692:	93 e0       	ldi	r25, 0x03	; 3
     694:	90 93 ac 05 	sts	0x05AC, r25	; 0x8005ac <ptr_get+0x1>
     698:	80 93 ab 05 	sts	0x05AB, r24	; 0x8005ab <ptr_get>
     69c:	ea e0       	ldi	r30, 0x0A	; 10
     69e:	f2 e0       	ldi	r31, 0x02	; 2
     6a0:	84 81       	ldd	r24, Z+4	; 0x04
     6a2:	8d 83       	std	Y+5, r24	; 0x05
     6a4:	85 81       	ldd	r24, Z+5	; 0x05
     6a6:	8e 83       	std	Y+6, r24	; 0x06
     6a8:	86 81       	ldd	r24, Z+6	; 0x06
     6aa:	8f 83       	std	Y+7, r24	; 0x07
     6ac:	80 81       	ld	r24, Z
     6ae:	91 81       	ldd	r25, Z+1	; 0x01
     6b0:	a2 81       	ldd	r26, Z+2	; 0x02
     6b2:	b3 81       	ldd	r27, Z+3	; 0x03
     6b4:	89 83       	std	Y+1, r24	; 0x01
     6b6:	9a 83       	std	Y+2, r25	; 0x02
     6b8:	ab 83       	std	Y+3, r26	; 0x03
     6ba:	bc 83       	std	Y+4, r27	; 0x04
     6bc:	be 01       	movw	r22, r28
     6be:	6f 5f       	subi	r22, 0xFF	; 255
     6c0:	7f 4f       	sbci	r23, 0xFF	; 255
     6c2:	88 ec       	ldi	r24, 0xC8	; 200
     6c4:	90 e0       	ldi	r25, 0x00	; 0
     6c6:	79 df       	rcall	.-270    	; 0x5ba <usart_init_rs232>
     6c8:	6a e1       	ldi	r22, 0x1A	; 26
     6ca:	72 e0       	ldi	r23, 0x02	; 2
     6cc:	83 e3       	ldi	r24, 0x33	; 51
     6ce:	92 e0       	ldi	r25, 0x02	; 2
     6d0:	0e 94 4c 17 	call	0x2e98	; 0x2e98 <fdevopen>
     6d4:	f8 01       	movw	r30, r16
     6d6:	81 81       	ldd	r24, Z+1	; 0x01
     6d8:	80 68       	ori	r24, 0x80	; 128
     6da:	81 83       	std	Z+1, r24	; 0x01
     6dc:	27 96       	adiw	r28, 0x07	; 7
     6de:	0f b6       	in	r0, 0x3f	; 63
     6e0:	f8 94       	cli
     6e2:	de bf       	out	0x3e, r29	; 62
     6e4:	0f be       	out	0x3f, r0	; 63
     6e6:	cd bf       	out	0x3d, r28	; 61
     6e8:	df 91       	pop	r29
     6ea:	cf 91       	pop	r28
     6ec:	1f 91       	pop	r17
     6ee:	0f 91       	pop	r16
     6f0:	08 95       	ret

000006f2 <sio2host_tx>:
     6f2:	ff 92       	push	r15
     6f4:	0f 93       	push	r16
     6f6:	1f 93       	push	r17
     6f8:	cf 93       	push	r28
     6fa:	df 93       	push	r29
     6fc:	8c 01       	movw	r16, r24
     6fe:	f6 2e       	mov	r15, r22
     700:	c6 2f       	mov	r28, r22
     702:	d0 e0       	ldi	r29, 0x00	; 0
     704:	ae 01       	movw	r20, r28
     706:	b8 01       	movw	r22, r16
     708:	88 ec       	ldi	r24, 0xC8	; 200
     70a:	90 e0       	ldi	r25, 0x00	; 0
     70c:	5f de       	rcall	.-834    	; 0x3cc <usart_serial_write_packet>
     70e:	81 11       	cpse	r24, r1
     710:	f9 cf       	rjmp	.-14     	; 0x704 <sio2host_tx+0x12>
     712:	8f 2d       	mov	r24, r15
     714:	df 91       	pop	r29
     716:	cf 91       	pop	r28
     718:	1f 91       	pop	r17
     71a:	0f 91       	pop	r16
     71c:	ff 90       	pop	r15
     71e:	08 95       	ret

00000720 <sio2host_rx>:
     720:	dc 01       	movw	r26, r24
     722:	80 91 24 02 	lds	r24, 0x0224	; 0x800224 <serial_rx_buf_tail>
     726:	90 91 25 02 	lds	r25, 0x0225	; 0x800225 <serial_rx_buf_head>
     72a:	89 17       	cp	r24, r25
     72c:	28 f0       	brcs	.+10     	; 0x738 <sio2host_rx+0x18>
     72e:	28 2f       	mov	r18, r24
     730:	29 1b       	sub	r18, r25
     732:	20 93 23 02 	sts	0x0223, r18	; 0x800223 <serial_rx_count>
     736:	05 c0       	rjmp	.+10     	; 0x742 <sio2host_rx+0x22>
     738:	2c e9       	ldi	r18, 0x9C	; 156
     73a:	28 0f       	add	r18, r24
     73c:	29 1b       	sub	r18, r25
     73e:	20 93 23 02 	sts	0x0223, r18	; 0x800223 <serial_rx_count>
     742:	90 91 23 02 	lds	r25, 0x0223	; 0x800223 <serial_rx_count>
     746:	99 23       	and	r25, r25
     748:	31 f1       	breq	.+76     	; 0x796 <sio2host_rx+0x76>
     74a:	9c 39       	cpi	r25, 0x9C	; 156
     74c:	40 f0       	brcs	.+16     	; 0x75e <sio2host_rx+0x3e>
     74e:	80 93 25 02 	sts	0x0225, r24	; 0x800225 <serial_rx_buf_head>
     752:	8c e9       	ldi	r24, 0x9C	; 156
     754:	80 93 23 02 	sts	0x0223, r24	; 0x800223 <serial_rx_count>
     758:	6c 39       	cpi	r22, 0x9C	; 156
     75a:	38 f4       	brcc	.+14     	; 0x76a <sio2host_rx+0x4a>
     75c:	03 c0       	rjmp	.+6      	; 0x764 <sio2host_rx+0x44>
     75e:	96 17       	cp	r25, r22
     760:	08 f4       	brcc	.+2      	; 0x764 <sio2host_rx+0x44>
     762:	69 2f       	mov	r22, r25
     764:	61 11       	cpse	r22, r1
     766:	02 c0       	rjmp	.+4      	; 0x76c <sio2host_rx+0x4c>
     768:	18 c0       	rjmp	.+48     	; 0x79a <sio2host_rx+0x7a>
     76a:	6c e9       	ldi	r22, 0x9C	; 156
     76c:	90 91 25 02 	lds	r25, 0x0225	; 0x800225 <serial_rx_buf_head>
     770:	26 2f       	mov	r18, r22
     772:	e9 2f       	mov	r30, r25
     774:	f0 e0       	ldi	r31, 0x00	; 0
     776:	ea 5d       	subi	r30, 0xDA	; 218
     778:	fd 4f       	sbci	r31, 0xFD	; 253
     77a:	30 81       	ld	r19, Z
     77c:	3d 93       	st	X+, r19
     77e:	21 50       	subi	r18, 0x01	; 1
     780:	9b 39       	cpi	r25, 0x9B	; 155
     782:	11 f0       	breq	.+4      	; 0x788 <sio2host_rx+0x68>
     784:	9f 5f       	subi	r25, 0xFF	; 255
     786:	01 c0       	rjmp	.+2      	; 0x78a <sio2host_rx+0x6a>
     788:	90 e0       	ldi	r25, 0x00	; 0
     78a:	21 11       	cpse	r18, r1
     78c:	f2 cf       	rjmp	.-28     	; 0x772 <sio2host_rx+0x52>
     78e:	90 93 25 02 	sts	0x0225, r25	; 0x800225 <serial_rx_buf_head>
     792:	86 2f       	mov	r24, r22
     794:	08 95       	ret
     796:	80 e0       	ldi	r24, 0x00	; 0
     798:	08 95       	ret
     79a:	80 e0       	ldi	r24, 0x00	; 0
     79c:	08 95       	ret

0000079e <sio2host_getchar_nowait>:
     79e:	cf 93       	push	r28
     7a0:	df 93       	push	r29
     7a2:	1f 92       	push	r1
     7a4:	cd b7       	in	r28, 0x3d	; 61
     7a6:	de b7       	in	r29, 0x3e	; 62
     7a8:	61 e0       	ldi	r22, 0x01	; 1
     7aa:	ce 01       	movw	r24, r28
     7ac:	01 96       	adiw	r24, 0x01	; 1
     7ae:	b8 df       	rcall	.-144    	; 0x720 <sio2host_rx>
     7b0:	88 23       	and	r24, r24
     7b2:	19 f0       	breq	.+6      	; 0x7ba <sio2host_getchar_nowait+0x1c>
     7b4:	89 81       	ldd	r24, Y+1	; 0x01
     7b6:	90 e0       	ldi	r25, 0x00	; 0
     7b8:	02 c0       	rjmp	.+4      	; 0x7be <sio2host_getchar_nowait+0x20>
     7ba:	8f ef       	ldi	r24, 0xFF	; 255
     7bc:	9f ef       	ldi	r25, 0xFF	; 255
     7be:	0f 90       	pop	r0
     7c0:	df 91       	pop	r29
     7c2:	cf 91       	pop	r28
     7c4:	08 95       	ret

000007c6 <__vector_36>:
     7c6:	1f 92       	push	r1
     7c8:	0f 92       	push	r0
     7ca:	0f b6       	in	r0, 0x3f	; 63
     7cc:	0f 92       	push	r0
     7ce:	11 24       	eor	r1, r1
     7d0:	0b b6       	in	r0, 0x3b	; 59
     7d2:	0f 92       	push	r0
     7d4:	2f 93       	push	r18
     7d6:	3f 93       	push	r19
     7d8:	4f 93       	push	r20
     7da:	5f 93       	push	r21
     7dc:	6f 93       	push	r22
     7de:	7f 93       	push	r23
     7e0:	8f 93       	push	r24
     7e2:	9f 93       	push	r25
     7e4:	af 93       	push	r26
     7e6:	bf 93       	push	r27
     7e8:	ef 93       	push	r30
     7ea:	ff 93       	push	r31
     7ec:	cf 93       	push	r28
     7ee:	df 93       	push	r29
     7f0:	1f 92       	push	r1
     7f2:	cd b7       	in	r28, 0x3d	; 61
     7f4:	de b7       	in	r29, 0x3e	; 62
     7f6:	41 e0       	ldi	r20, 0x01	; 1
     7f8:	50 e0       	ldi	r21, 0x00	; 0
     7fa:	be 01       	movw	r22, r28
     7fc:	6f 5f       	subi	r22, 0xFF	; 255
     7fe:	7f 4f       	sbci	r23, 0xFF	; 255
     800:	88 ec       	ldi	r24, 0xC8	; 200
     802:	90 e0       	ldi	r25, 0x00	; 0
     804:	fd dd       	rcall	.-1030   	; 0x400 <usart_serial_read_packet>
     806:	f8 94       	cli
     808:	80 91 24 02 	lds	r24, 0x0224	; 0x800224 <serial_rx_buf_tail>
     80c:	e8 2f       	mov	r30, r24
     80e:	f0 e0       	ldi	r31, 0x00	; 0
     810:	ea 5d       	subi	r30, 0xDA	; 218
     812:	fd 4f       	sbci	r31, 0xFD	; 253
     814:	99 81       	ldd	r25, Y+1	; 0x01
     816:	90 83       	st	Z, r25
     818:	8b 39       	cpi	r24, 0x9B	; 155
     81a:	19 f4       	brne	.+6      	; 0x822 <__vector_36+0x5c>
     81c:	10 92 24 02 	sts	0x0224, r1	; 0x800224 <serial_rx_buf_tail>
     820:	03 c0       	rjmp	.+6      	; 0x828 <__vector_36+0x62>
     822:	8f 5f       	subi	r24, 0xFF	; 255
     824:	80 93 24 02 	sts	0x0224, r24	; 0x800224 <serial_rx_buf_tail>
     828:	78 94       	sei
     82a:	0f 90       	pop	r0
     82c:	df 91       	pop	r29
     82e:	cf 91       	pop	r28
     830:	ff 91       	pop	r31
     832:	ef 91       	pop	r30
     834:	bf 91       	pop	r27
     836:	af 91       	pop	r26
     838:	9f 91       	pop	r25
     83a:	8f 91       	pop	r24
     83c:	7f 91       	pop	r23
     83e:	6f 91       	pop	r22
     840:	5f 91       	pop	r21
     842:	4f 91       	pop	r20
     844:	3f 91       	pop	r19
     846:	2f 91       	pop	r18
     848:	0f 90       	pop	r0
     84a:	0b be       	out	0x3b, r0	; 59
     84c:	0f 90       	pop	r0
     84e:	0f be       	out	0x3f, r0	; 63
     850:	0f 90       	pop	r0
     852:	1f 90       	pop	r1
     854:	18 95       	reti

00000856 <usr_wireless_app_task>:
uint8_t ed_val; uint8_t potencia_trama; // Variable para almacenar el nivel de energia de las tramas recibidas
int Npayload=0; int desplas=0; // Variables para control del vector de almacenamiento
int  contAlm=0; int limAlm=0;  // Variables contar el numero de tramas recibidas
//////////////////////////////////////////////////////////////////////////
void usr_wireless_app_task(void)
{
     856:	cf 92       	push	r12
     858:	df 92       	push	r13
     85a:	ef 92       	push	r14
     85c:	ff 92       	push	r15
     85e:	0f 93       	push	r16
     860:	1f 93       	push	r17
     862:	cf 93       	push	r28
     864:	df 93       	push	r29
     866:	cd b7       	in	r28, 0x3d	; 61
     868:	de b7       	in	r29, 0x3e	; 62
     86a:	c5 50       	subi	r28, 0x05	; 5
     86c:	d1 40       	sbci	r29, 0x01	; 1
     86e:	0f b6       	in	r0, 0x3f	; 63
     870:	f8 94       	cli
     872:	de bf       	out	0x3e, r29	; 62
     874:	0f be       	out	0x3f, r0	; 63
     876:	cd bf       	out	0x3d, r28	; 61
	uint8_t mensajedeConfirmacion[6]="Listo";//Mensaje de confirmaci?n de conexi?n
     878:	86 e0       	ldi	r24, 0x06	; 6
     87a:	e1 e1       	ldi	r30, 0x11	; 17
     87c:	f2 e0       	ldi	r31, 0x02	; 2
     87e:	de 01       	movw	r26, r28
     880:	11 96       	adiw	r26, 0x01	; 1
     882:	01 90       	ld	r0, Z+
     884:	0d 92       	st	X+, r0
     886:	8a 95       	dec	r24
     888:	e1 f7       	brne	.-8      	; 0x882 <usr_wireless_app_task+0x2c>
	mensajedeConfirmacion[5]=0xFF;//Bute de parada
     88a:	8f ef       	ldi	r24, 0xFF	; 255
     88c:	8e 83       	std	Y+6, r24	; 0x06
	int8_t chat_input = sio2host_getchar_nowait();//obtenci?n del mensaje serial
     88e:	87 df       	rcall	.-242    	; 0x79e <sio2host_getchar_nowait>
     890:	c8 2e       	mov	r12, r24
	static uint8_t payload_length,payload[aMaxPHYPacketSize-FRAME_OVERHEAD];// Vector para almacenar datos enviados por al app
	if (chat_input != -1)
     892:	8f 3f       	cpi	r24, 0xFF	; 255
     894:	69 f0       	breq	.+26     	; 0x8b0 <usr_wireless_app_task+0x5a>
	{
		payload[payload_length++] = chat_input;//Almacenamiento de datos de la app
     896:	e0 91 36 03 	lds	r30, 0x0336	; 0x800336 <payload_length.3419>
     89a:	91 e0       	ldi	r25, 0x01	; 1
     89c:	9e 0f       	add	r25, r30
     89e:	90 93 36 03 	sts	0x0336, r25	; 0x800336 <payload_length.3419>
     8a2:	f0 e0       	ldi	r31, 0x00	; 0
     8a4:	ee 53       	subi	r30, 0x3E	; 62
     8a6:	fd 4f       	sbci	r31, 0xFD	; 253
     8a8:	80 83       	st	Z, r24
		
	}// Si llega el simbolo \t el nodo procede a transmitir las ordenes al transmisor  
	if((chat_input == '\t')||(payload_length == (aMaxPHYPacketSize-FRAME_OVERHEAD))){                                                      
     8aa:	89 e0       	ldi	r24, 0x09	; 9
     8ac:	c8 16       	cp	r12, r24
     8ae:	29 f0       	breq	.+10     	; 0x8ba <usr_wireless_app_task+0x64>
     8b0:	80 91 36 03 	lds	r24, 0x0336	; 0x800336 <payload_length.3419>
     8b4:	84 37       	cpi	r24, 0x74	; 116
     8b6:	09 f0       	breq	.+2      	; 0x8ba <usr_wireless_app_task+0x64>
     8b8:	54 c0       	rjmp	.+168    	; 0x962 <usr_wireless_app_task+0x10c>
		sio2host_tx(mensajedeConfirmacion,6);//transmisi?n del mensaje de confirmacion de conexi?n
     8ba:	66 e0       	ldi	r22, 0x06	; 6
     8bc:	ce 01       	movw	r24, r28
     8be:	01 96       	adiw	r24, 0x01	; 1
     8c0:	18 df       	rcall	.-464    	; 0x6f2 <sio2host_tx>
		transmit_sample_frame(payload,payload_length-1);//transmite al nodo externo lo recibido por la conexion serial.
     8c2:	60 91 36 03 	lds	r22, 0x0336	; 0x800336 <payload_length.3419>
     8c6:	61 50       	subi	r22, 0x01	; 1
     8c8:	82 ec       	ldi	r24, 0xC2	; 194
     8ca:	92 e0       	ldi	r25, 0x02	; 2
     8cc:	57 d1       	rcall	.+686    	; 0xb7c <transmit_sample_frame>
		payload_length = 0;//reseteo de variable
     8ce:	10 92 36 03 	sts	0x0336, r1	; 0x800336 <payload_length.3419>
     8d2:	47 c0       	rjmp	.+142    	; 0x962 <usr_wireless_app_task+0x10c>
		
	}// Si llega el simbolo \r el nodo procede a enviar datos a la aplicacion 
	if((chat_input == '\r')||(payload_length == (aMaxPHYPacketSize-FRAME_OVERHEAD)))
	{
		desplas=0;
     8d4:	10 92 3a 03 	sts	0x033A, r1	; 0x80033a <desplas+0x1>
     8d8:	10 92 39 03 	sts	0x0339, r1	; 0x800339 <desplas>
     8dc:	0f 2e       	mov	r0, r31
     8de:	fa e2       	ldi	r31, 0x2A	; 42
     8e0:	ef 2e       	mov	r14, r31
     8e2:	f1 2c       	mov	r15, r1
     8e4:	f0 2d       	mov	r31, r0
     8e6:	8e 01       	movw	r16, r28
     8e8:	0a 5f       	subi	r16, 0xFA	; 250
     8ea:	1e 4f       	sbci	r17, 0xFE	; 254
 */
__always_inline static void arch_ioport_toggle_pin_level(ioport_pin_t pin)
{
	PORT_t *base = arch_ioport_pin_to_base(pin);

	base->PINCRL = arch_ioport_pin_to_mask(pin);
     8ec:	68 94       	set
     8ee:	dd 24       	eor	r13, r13
     8f0:	d2 f8       	bld	r13, 2
     8f2:	14 c0       	rjmp	.+40     	; 0x91c <usr_wireless_app_task+0xc6>
		for (int i = 0; i < 42; i++)
		{
			uint8_t datosPC[255];
			for (int j = 0; j <255 ; j++)// Se almacenan los datos dentro del vector datosPC para despues seguir con los 256 bytes siguientes
			{
				datosPC[j]=vectorAlmacenamiento[desplas+j];
     8f4:	8d 91       	ld	r24, X+
     8f6:	81 93       	st	Z+, r24
		desplas=0;
		//Guardado y envio de los datos almacenados previamente (cada 256 bytes)
		for (int i = 0; i < 42; i++)
		{
			uint8_t datosPC[255];
			for (int j = 0; j <255 ; j++)// Se almacenan los datos dentro del vector datosPC para despues seguir con los 256 bytes siguientes
     8f8:	e0 17       	cp	r30, r16
     8fa:	f1 07       	cpc	r31, r17
     8fc:	d9 f7       	brne	.-10     	; 0x8f4 <usr_wireless_app_task+0x9e>
			{
				datosPC[j]=vectorAlmacenamiento[desplas+j];
			}
			desplas=desplas+255;
     8fe:	21 50       	subi	r18, 0x01	; 1
     900:	3f 4f       	sbci	r19, 0xFF	; 255
     902:	30 93 3a 03 	sts	0x033A, r19	; 0x80033a <desplas+0x1>
     906:	20 93 39 03 	sts	0x0339, r18	; 0x800339 <desplas>
			sio2host_tx(datosPC,255);//Envio de datos al pc
     90a:	6f ef       	ldi	r22, 0xFF	; 255
     90c:	ce 01       	movw	r24, r28
     90e:	07 96       	adiw	r24, 0x07	; 7
     910:	f0 de       	rcall	.-544    	; 0x6f2 <sio2host_tx>
     912:	d2 ba       	out	0x12, r13	; 18
     914:	81 e0       	ldi	r24, 0x01	; 1
     916:	e8 1a       	sub	r14, r24
     918:	f1 08       	sbc	r15, r1
	}// Si llega el simbolo \r el nodo procede a enviar datos a la aplicacion 
	if((chat_input == '\r')||(payload_length == (aMaxPHYPacketSize-FRAME_OVERHEAD)))
	{
		desplas=0;
		//Guardado y envio de los datos almacenados previamente (cada 256 bytes)
		for (int i = 0; i < 42; i++)
     91a:	51 f0       	breq	.+20     	; 0x930 <usr_wireless_app_task+0xda>
		{
			uint8_t datosPC[255];
			for (int j = 0; j <255 ; j++)// Se almacenan los datos dentro del vector datosPC para despues seguir con los 256 bytes siguientes
			{
				datosPC[j]=vectorAlmacenamiento[desplas+j];
     91c:	20 91 39 03 	lds	r18, 0x0339	; 0x800339 <desplas>
     920:	30 91 3a 03 	lds	r19, 0x033A	; 0x80033a <desplas+0x1>
     924:	d9 01       	movw	r26, r18
     926:	ad 5d       	subi	r26, 0xDD	; 221
     928:	b9 4f       	sbci	r27, 0xF9	; 249
     92a:	fe 01       	movw	r30, r28
     92c:	37 96       	adiw	r30, 0x07	; 7
     92e:	e2 cf       	rjmp	.-60     	; 0x8f4 <usr_wireless_app_task+0x9e>
{
	PORT_t *base_add = arch_ioport_port_to_base(pin >> 3);

	if (level) {
		base_add->PORTDATA
			= (base_add->PORTDATA  | arch_ioport_pin_to_mask
     930:	a2 9a       	sbi	0x14, 2	; 20
			LED_Toggle(LED1);
		}
		LED_Off(LED1);
		
	} // Si llega el simbolo \b el nodo envia su direccion fuente a la aplicacion
	if((chat_input == '\b')||(payload_length == (aMaxPHYPacketSize-FRAME_OVERHEAD)))
     932:	88 e0       	ldi	r24, 0x08	; 8
     934:	c8 16       	cp	r12, r24
     936:	21 f0       	breq	.+8      	; 0x940 <usr_wireless_app_task+0xea>
     938:	80 91 36 03 	lds	r24, 0x0336	; 0x800336 <payload_length.3419>
     93c:	84 37       	cpi	r24, 0x74	; 116
     93e:	a9 f4       	brne	.+42     	; 0x96a <usr_wireless_app_task+0x114>
	{

		uint8_t direccionDelNodo[3];
		//obtencion del la direccion fuente del nodo
		direccionDelNodo[0]=(uint8_t)(SRC_ADDR >> 8);
     940:	1f 82       	std	Y+7, r1	; 0x07
		direccionDelNodo[1]=(uint8_t)SRC_ADDR;
     942:	82 e0       	ldi	r24, 0x02	; 2
     944:	88 87       	std	Y+8, r24	; 0x08
		direccionDelNodo[2]=0xFF;                  
     946:	8f ef       	ldi	r24, 0xFF	; 255
		sio2host_tx(direccionDelNodo,3);//transmisi?n de la direccion origen a la aplicacion
     948:	89 87       	std	Y+9, r24	; 0x09
     94a:	63 e0       	ldi	r22, 0x03	; 3
     94c:	ce 01       	movw	r24, r28
     94e:	07 96       	adiw	r24, 0x07	; 7
     950:	d0 de       	rcall	.-608    	; 0x6f2 <sio2host_tx>
		payload_length = 0;//reseteo de variable
     952:	10 92 36 03 	sts	0x0336, r1	; 0x800336 <payload_length.3419>
					(pin));
	} else {
		base_add->PORTDATA
			= (base_add->PORTDATA  & (~arch_ioport_pin_to_mask
     956:	a2 98       	cbi	0x14, 2	; 20
		LED_On(LED1);
	}
}
     958:	08 c0       	rjmp	.+16     	; 0x96a <usr_wireless_app_task+0x114>
			LED_Toggle(LED1);
		}
		LED_Off(LED1);
		
	} // Si llega el simbolo \b el nodo envia su direccion fuente a la aplicacion
	if((chat_input == '\b')||(payload_length == (aMaxPHYPacketSize-FRAME_OVERHEAD)))
     95a:	88 e0       	ldi	r24, 0x08	; 8
     95c:	c8 12       	cpse	r12, r24
     95e:	05 c0       	rjmp	.+10     	; 0x96a <usr_wireless_app_task+0x114>
     960:	ef cf       	rjmp	.-34     	; 0x940 <usr_wireless_app_task+0xea>
		sio2host_tx(mensajedeConfirmacion,6);//transmisi?n del mensaje de confirmacion de conexi?n
		transmit_sample_frame(payload,payload_length-1);//transmite al nodo externo lo recibido por la conexion serial.
		payload_length = 0;//reseteo de variable
		
	}// Si llega el simbolo \r el nodo procede a enviar datos a la aplicacion 
	if((chat_input == '\r')||(payload_length == (aMaxPHYPacketSize-FRAME_OVERHEAD)))
     962:	8d e0       	ldi	r24, 0x0D	; 13
     964:	c8 12       	cpse	r12, r24
     966:	f9 cf       	rjmp	.-14     	; 0x95a <usr_wireless_app_task+0x104>
     968:	b5 cf       	rjmp	.-150    	; 0x8d4 <usr_wireless_app_task+0x7e>
		direccionDelNodo[2]=0xFF;                  
		sio2host_tx(direccionDelNodo,3);//transmisi?n de la direccion origen a la aplicacion
		payload_length = 0;//reseteo de variable
		LED_On(LED1);
	}
}
     96a:	cb 5f       	subi	r28, 0xFB	; 251
     96c:	de 4f       	sbci	r29, 0xFE	; 254
     96e:	0f b6       	in	r0, 0x3f	; 63
     970:	f8 94       	cli
     972:	de bf       	out	0x3e, r29	; 62
     974:	0f be       	out	0x3f, r0	; 63
     976:	cd bf       	out	0x3d, r28	; 61
     978:	df 91       	pop	r29
     97a:	cf 91       	pop	r28
     97c:	1f 91       	pop	r17
     97e:	0f 91       	pop	r16
     980:	ff 90       	pop	r15
     982:	ef 90       	pop	r14
     984:	df 90       	pop	r13
     986:	cf 90       	pop	r12
     988:	08 95       	ret

0000098a <usr_frame_received_cb>:

void usr_frame_received_cb(frame_info_t *frame)
{
     98a:	cf 93       	push	r28
     98c:	df 93       	push	r29
     98e:	ec 01       	movw	r28, r24
	// Configuracion de vector de recepcion 
	sio2host_tx(&(frame->mpdu[FRAME_OVERHEAD-FCS_LEN+1]),(frame->mpdu[0])-FRAME_OVERHEAD);
     990:	8f 81       	ldd	r24, Y+7	; 0x07
     992:	98 85       	ldd	r25, Y+8	; 0x08
     994:	fc 01       	movw	r30, r24
     996:	60 81       	ld	r22, Z
     998:	6b 50       	subi	r22, 0x0B	; 11
     99a:	0a 96       	adiw	r24, 0x0a	; 10
     99c:	aa de       	rcall	.-684    	; 0x6f2 <sio2host_tx>
	memset(&trama_recibida,0,sizeof(trama_recibida));// Elimina informacion previa de la estructura de recepcion
     99e:	81 eb       	ldi	r24, 0xB1	; 177
     9a0:	95 e0       	ldi	r25, 0x05	; 5
     9a2:	21 e7       	ldi	r18, 0x71	; 113
     9a4:	fc 01       	movw	r30, r24
     9a6:	11 92       	st	Z+, r1
     9a8:	2a 95       	dec	r18
     9aa:	e9 f7       	brne	.-6      	; 0x9a6 <usr_frame_received_cb+0x1c>
	memcpy(&trama_recibida,frame->mpdu,sizeof(trama_recibida));// copia la informacion de la memoria fuente(buffer) al detino
     9ac:	ef 81       	ldd	r30, Y+7	; 0x07
     9ae:	f8 85       	ldd	r31, Y+8	; 0x08
     9b0:	21 e7       	ldi	r18, 0x71	; 113
     9b2:	dc 01       	movw	r26, r24
     9b4:	01 90       	ld	r0, Z+
     9b6:	0d 92       	st	X+, r0
     9b8:	2a 95       	dec	r18
     9ba:	e1 f7       	brne	.-8      	; 0x9b4 <usr_frame_received_cb+0x2a>
	// Verifica si los datos recividos pertenecen al transmisor
	if (trama_recibida.dir_origen==0x0001 && (trama_recibida.cargaUtil_802_15_4[0]=='C'||trama_recibida.cargaUtil_802_15_4[0]=='L')) // Si se cumple esta condicion la trama es del nodo externo
     9bc:	fc 01       	movw	r30, r24
     9be:	80 85       	ldd	r24, Z+8	; 0x08
     9c0:	91 85       	ldd	r25, Z+9	; 0x09
     9c2:	01 97       	sbiw	r24, 0x01	; 1
     9c4:	a9 f5       	brne	.+106    	; 0xa30 <usr_frame_received_cb+0xa6>
     9c6:	80 91 bb 05 	lds	r24, 0x05BB	; 0x8005bb <trama_recibida+0xa>
     9ca:	83 34       	cpi	r24, 0x43	; 67
     9cc:	11 f0       	breq	.+4      	; 0x9d2 <usr_frame_received_cb+0x48>
     9ce:	8c 34       	cpi	r24, 0x4C	; 76
     9d0:	79 f5       	brne	.+94     	; 0xa30 <usr_frame_received_cb+0xa6>
 */
__always_inline static void arch_ioport_toggle_pin_level(ioport_pin_t pin)
{
	PORT_t *base = arch_ioport_pin_to_base(pin);

	base->PINCRL = arch_ioport_pin_to_mask(pin);
     9d2:	80 e4       	ldi	r24, 0x40	; 64
     9d4:	89 b9       	out	0x09, r24	; 9
{
	PORT_t *base_add = arch_ioport_port_to_base(pin >> 3);

	if (level) {
		base_add->PORTDATA
			= (base_add->PORTDATA  | arch_ioport_pin_to_mask
     9d6:	a2 9a       	sbi	0x14, 2	; 20
					(pin));
	} else {
		base_add->PORTDATA
			= (base_add->PORTDATA  & (~arch_ioport_pin_to_mask
     9d8:	72 98       	cbi	0x0e, 2	; 14
	{
		LED_Toggle(LED0);
		LED_Off(LED1);
		LED_On(LED2);
		// Extraccion del nivel de energia
		uint8_t *payload_ptr=frame->mpdu;
     9da:	ef 81       	ldd	r30, Y+7	; 0x07
     9dc:	f8 85       	ldd	r31, Y+8	; 0x08
		uint8_t mpdu_len =payload_ptr[0]+2;
		uint8_t potencia_trama=payload_ptr[mpdu_len];
     9de:	80 81       	ld	r24, Z
     9e0:	8e 5f       	subi	r24, 0xFE	; 254
     9e2:	e8 0f       	add	r30, r24
     9e4:	f1 1d       	adc	r31, r1
     9e6:	80 81       	ld	r24, Z
		trama_recibida.cargaUtil_802_15_4[14]=potencia_trama;
     9e8:	e1 eb       	ldi	r30, 0xB1	; 177
     9ea:	f5 e0       	ldi	r31, 0x05	; 5
     9ec:	80 8f       	std	Z+24, r24	; 0x18
		// Verificacion del tamao de la trama
		int longTrRx=((int)trama_recibida.longitud)-11;
     9ee:	40 81       	ld	r20, Z
     9f0:	50 e0       	ldi	r21, 0x00	; 0
     9f2:	4b 50       	subi	r20, 0x0B	; 11
     9f4:	51 09       	sbc	r21, r1
		if (longTrRx==23||longTrRx==100)
     9f6:	47 31       	cpi	r20, 0x17	; 23
     9f8:	51 05       	cpc	r21, r1
     9fa:	19 f0       	breq	.+6      	; 0xa02 <usr_frame_received_cb+0x78>
     9fc:	44 36       	cpi	r20, 0x64	; 100
     9fe:	51 05       	cpc	r21, r1
     a00:	b9 f4       	brne	.+46     	; 0xa30 <usr_frame_received_cb+0xa6>
		{
			//Almacenamiento de cada una de las tramas enviadas por el nodo transmisor junto a su nivel de energia
			for (int i = 0; i < longTrRx; i++)
			{
				vectorAlmacenamiento[contAlm+i]=trama_recibida.cargaUtil_802_15_4[i];
     a02:	60 91 37 03 	lds	r22, 0x0337	; 0x800337 <contAlm>
     a06:	70 91 38 03 	lds	r23, 0x0338	; 0x800338 <contAlm+0x1>
     a0a:	ab eb       	ldi	r26, 0xBB	; 187
     a0c:	b5 e0       	ldi	r27, 0x05	; 5
     a0e:	fb 01       	movw	r30, r22
     a10:	ed 5d       	subi	r30, 0xDD	; 221
     a12:	f9 4f       	sbci	r31, 0xF9	; 249
     a14:	80 e0       	ldi	r24, 0x00	; 0
     a16:	90 e0       	ldi	r25, 0x00	; 0
     a18:	2d 91       	ld	r18, X+
     a1a:	21 93       	st	Z+, r18
		// Verificacion del tamao de la trama
		int longTrRx=((int)trama_recibida.longitud)-11;
		if (longTrRx==23||longTrRx==100)
		{
			//Almacenamiento de cada una de las tramas enviadas por el nodo transmisor junto a su nivel de energia
			for (int i = 0; i < longTrRx; i++)
     a1c:	01 96       	adiw	r24, 0x01	; 1
     a1e:	84 17       	cp	r24, r20
     a20:	95 07       	cpc	r25, r21
     a22:	d4 f3       	brlt	.-12     	; 0xa18 <usr_frame_received_cb+0x8e>
			{
				vectorAlmacenamiento[contAlm+i]=trama_recibida.cargaUtil_802_15_4[i];
			}
			contAlm=contAlm+longTrRx;
     a24:	46 0f       	add	r20, r22
     a26:	57 1f       	adc	r21, r23
     a28:	50 93 38 03 	sts	0x0338, r21	; 0x800338 <contAlm+0x1>
     a2c:	40 93 37 03 	sts	0x0337, r20	; 0x800337 <contAlm>
		}
		//////////////////////////////////////////////////////////////////////////
	}
	//delay_ms(10);

}
     a30:	df 91       	pop	r29
     a32:	cf 91       	pop	r28
     a34:	08 95       	ret

00000a36 <usr_frame_transmitted_cb>:

void usr_frame_transmitted_cb(retval_t status, frame_info_t *frame)
{
     a36:	08 95       	ret

00000a38 <transmit_frame>:
     a38:	4f 92       	push	r4
     a3a:	5f 92       	push	r5
     a3c:	6f 92       	push	r6
     a3e:	7f 92       	push	r7
     a40:	8f 92       	push	r8
     a42:	af 92       	push	r10
     a44:	cf 92       	push	r12
     a46:	ef 92       	push	r14
     a48:	0f 93       	push	r16
     a4a:	1f 93       	push	r17
     a4c:	cf 93       	push	r28
     a4e:	df 93       	push	r29
     a50:	cd b7       	in	r28, 0x3d	; 61
     a52:	de b7       	in	r29, 0x3e	; 62
     a54:	a9 e8       	ldi	r26, 0x89	; 137
     a56:	b0 e0       	ldi	r27, 0x00	; 0
     a58:	ae 19       	sub	r26, r14
     a5a:	b1 09       	sbc	r27, r1
     a5c:	fd 01       	movw	r30, r26
     a5e:	e3 5c       	subi	r30, 0xC3	; 195
     a60:	fc 4f       	sbci	r31, 0xFC	; 252
     a62:	3f 01       	movw	r6, r30
     a64:	ee 20       	and	r14, r14
     a66:	79 f0       	breq	.+30     	; 0xa86 <transmit_frame+0x4e>
     a68:	d8 01       	movw	r26, r16
     a6a:	44 24       	eor	r4, r4
     a6c:	4a 94       	dec	r4
     a6e:	4e 0c       	add	r4, r14
     a70:	51 2c       	mov	r5, r1
     a72:	9f ef       	ldi	r25, 0xFF	; 255
     a74:	49 1a       	sub	r4, r25
     a76:	59 0a       	sbc	r5, r25
     a78:	04 0d       	add	r16, r4
     a7a:	15 1d       	adc	r17, r5
     a7c:	9d 91       	ld	r25, X+
     a7e:	91 93       	st	Z+, r25
     a80:	a0 17       	cp	r26, r16
     a82:	b1 07       	cpc	r27, r17
     a84:	d9 f7       	brne	.-10     	; 0xa7c <transmit_frame+0x44>
     a86:	42 30       	cpi	r20, 0x02	; 2
     a88:	61 f4       	brne	.+24     	; 0xaa2 <transmit_frame+0x6a>
     a8a:	3b e0       	ldi	r19, 0x0B	; 11
     a8c:	3e 0d       	add	r19, r14
     a8e:	d3 01       	movw	r26, r6
     a90:	40 91 94 54 	lds	r20, 0x5494	; 0x805494 <tal_pib+0xc>
     a94:	50 91 95 54 	lds	r21, 0x5495	; 0x805495 <tal_pib+0xd>
     a98:	5e 93       	st	-X, r21
     a9a:	4e 93       	st	-X, r20
     a9c:	40 e0       	ldi	r20, 0x00	; 0
     a9e:	50 e8       	ldi	r21, 0x80	; 128
     aa0:	26 c0       	rjmp	.+76     	; 0xaee <transmit_frame+0xb6>
     aa2:	d3 01       	movw	r26, r6
     aa4:	18 97       	sbiw	r26, 0x08	; 8
     aa6:	31 e1       	ldi	r19, 0x11	; 17
     aa8:	3e 0d       	add	r19, r14
     aaa:	e8 e8       	ldi	r30, 0x88	; 136
     aac:	f4 e5       	ldi	r31, 0x54	; 84
     aae:	90 81       	ld	r25, Z
     ab0:	9c 93       	st	X, r25
     ab2:	91 81       	ldd	r25, Z+1	; 0x01
     ab4:	11 96       	adiw	r26, 0x01	; 1
     ab6:	9c 93       	st	X, r25
     ab8:	11 97       	sbiw	r26, 0x01	; 1
     aba:	92 81       	ldd	r25, Z+2	; 0x02
     abc:	12 96       	adiw	r26, 0x02	; 2
     abe:	9c 93       	st	X, r25
     ac0:	12 97       	sbiw	r26, 0x02	; 2
     ac2:	93 81       	ldd	r25, Z+3	; 0x03
     ac4:	13 96       	adiw	r26, 0x03	; 3
     ac6:	9c 93       	st	X, r25
     ac8:	13 97       	sbiw	r26, 0x03	; 3
     aca:	94 81       	ldd	r25, Z+4	; 0x04
     acc:	14 96       	adiw	r26, 0x04	; 4
     ace:	9c 93       	st	X, r25
     ad0:	14 97       	sbiw	r26, 0x04	; 4
     ad2:	95 81       	ldd	r25, Z+5	; 0x05
     ad4:	15 96       	adiw	r26, 0x05	; 5
     ad6:	9c 93       	st	X, r25
     ad8:	15 97       	sbiw	r26, 0x05	; 5
     ada:	96 81       	ldd	r25, Z+6	; 0x06
     adc:	16 96       	adiw	r26, 0x06	; 6
     ade:	9c 93       	st	X, r25
     ae0:	16 97       	sbiw	r26, 0x06	; 6
     ae2:	97 81       	ldd	r25, Z+7	; 0x07
     ae4:	17 96       	adiw	r26, 0x07	; 7
     ae6:	9c 93       	st	X, r25
     ae8:	17 97       	sbiw	r26, 0x07	; 7
     aea:	40 e0       	ldi	r20, 0x00	; 0
     aec:	50 ec       	ldi	r21, 0xC0	; 192
     aee:	82 30       	cpi	r24, 0x02	; 2
     af0:	59 f4       	brne	.+22     	; 0xb08 <transmit_frame+0xd0>
     af2:	fb 01       	movw	r30, r22
     af4:	80 81       	ld	r24, Z
     af6:	91 81       	ldd	r25, Z+1	; 0x01
     af8:	fd 01       	movw	r30, r26
     afa:	92 93       	st	-Z, r25
     afc:	82 93       	st	-Z, r24
     afe:	3f 01       	movw	r6, r30
     b00:	ca 01       	movw	r24, r20
     b02:	80 64       	ori	r24, 0x40	; 64
     b04:	98 60       	ori	r25, 0x08	; 8
     b06:	0f c0       	rjmp	.+30     	; 0xb26 <transmit_frame+0xee>
     b08:	3d 01       	movw	r6, r26
     b0a:	f8 e0       	ldi	r31, 0x08	; 8
     b0c:	6f 1a       	sub	r6, r31
     b0e:	71 08       	sbc	r7, r1
     b10:	3a 5f       	subi	r19, 0xFA	; 250
     b12:	88 e0       	ldi	r24, 0x08	; 8
     b14:	fb 01       	movw	r30, r22
     b16:	d3 01       	movw	r26, r6
     b18:	01 90       	ld	r0, Z+
     b1a:	0d 92       	st	X+, r0
     b1c:	8a 95       	dec	r24
     b1e:	e1 f7       	brne	.-8      	; 0xb18 <transmit_frame+0xe0>
     b20:	ca 01       	movw	r24, r20
     b22:	80 64       	ori	r24, 0x40	; 64
     b24:	9c 60       	ori	r25, 0x0C	; 12
     b26:	4e ef       	ldi	r20, 0xFE	; 254
     b28:	5a ec       	ldi	r21, 0xCA	; 202
     b2a:	f3 01       	movw	r30, r6
     b2c:	32 97       	sbiw	r30, 0x02	; 2
     b2e:	51 83       	std	Z+1, r21	; 0x01
     b30:	40 83       	st	Z, r20
     b32:	31 97       	sbiw	r30, 0x01	; 1
     b34:	20 83       	st	Z, r18
     b36:	c1 10       	cpse	r12, r1
     b38:	02 c0       	rjmp	.+4      	; 0xb3e <transmit_frame+0x106>
     b3a:	81 60       	ori	r24, 0x01	; 1
     b3c:	01 c0       	rjmp	.+2      	; 0xb40 <transmit_frame+0x108>
     b3e:	81 62       	ori	r24, 0x21	; 33
     b40:	f3 01       	movw	r30, r6
     b42:	35 97       	sbiw	r30, 0x05	; 5
     b44:	91 83       	std	Z+1, r25	; 0x01
     b46:	80 83       	st	Z, r24
     b48:	d3 01       	movw	r26, r6
     b4a:	16 97       	sbiw	r26, 0x06	; 6
     b4c:	3c 93       	st	X, r19
     b4e:	b0 93 45 03 	sts	0x0345, r27	; 0x800345 <storage_buffer+0x8>
     b52:	a0 93 44 03 	sts	0x0344, r26	; 0x800344 <storage_buffer+0x7>
     b56:	48 2d       	mov	r20, r8
     b58:	6a 2d       	mov	r22, r10
     b5a:	8d e3       	ldi	r24, 0x3D	; 61
     b5c:	93 e0       	ldi	r25, 0x03	; 3
     b5e:	0e 94 f9 10 	call	0x21f2	; 0x21f2 <tal_tx_frame>
     b62:	df 91       	pop	r29
     b64:	cf 91       	pop	r28
     b66:	1f 91       	pop	r17
     b68:	0f 91       	pop	r16
     b6a:	ef 90       	pop	r14
     b6c:	cf 90       	pop	r12
     b6e:	af 90       	pop	r10
     b70:	8f 90       	pop	r8
     b72:	7f 90       	pop	r7
     b74:	6f 90       	pop	r6
     b76:	5f 90       	pop	r5
     b78:	4f 90       	pop	r4
     b7a:	08 95       	ret

00000b7c <transmit_sample_frame>:
     b7c:	8f 92       	push	r8
     b7e:	af 92       	push	r10
     b80:	cf 92       	push	r12
     b82:	ef 92       	push	r14
     b84:	0f 93       	push	r16
     b86:	1f 93       	push	r17
     b88:	cf 93       	push	r28
     b8a:	df 93       	push	r29
     b8c:	1f 92       	push	r1
     b8e:	1f 92       	push	r1
     b90:	cd b7       	in	r28, 0x3d	; 61
     b92:	de b7       	in	r29, 0x3e	; 62
     b94:	21 e0       	ldi	r18, 0x01	; 1
     b96:	30 e0       	ldi	r19, 0x00	; 0
     b98:	3a 83       	std	Y+2, r19	; 0x02
     b9a:	29 83       	std	Y+1, r18	; 0x01
     b9c:	20 91 3b 03 	lds	r18, 0x033B	; 0x80033b <seq_num.3415>
     ba0:	30 91 3c 03 	lds	r19, 0x033C	; 0x80033c <seq_num.3415+0x1>
     ba4:	a9 01       	movw	r20, r18
     ba6:	4f 5f       	subi	r20, 0xFF	; 255
     ba8:	5f 4f       	sbci	r21, 0xFF	; 255
     baa:	50 93 3c 03 	sts	0x033C, r21	; 0x80033c <seq_num.3415+0x1>
     bae:	40 93 3b 03 	sts	0x033B, r20	; 0x80033b <seq_num.3415>
     bb2:	81 2c       	mov	r8, r1
     bb4:	68 94       	set
     bb6:	aa 24       	eor	r10, r10
     bb8:	a1 f8       	bld	r10, 1
     bba:	c1 2c       	mov	r12, r1
     bbc:	e6 2e       	mov	r14, r22
     bbe:	8c 01       	movw	r16, r24
     bc0:	42 e0       	ldi	r20, 0x02	; 2
     bc2:	be 01       	movw	r22, r28
     bc4:	6f 5f       	subi	r22, 0xFF	; 255
     bc6:	7f 4f       	sbci	r23, 0xFF	; 255
     bc8:	82 e0       	ldi	r24, 0x02	; 2
     bca:	36 df       	rcall	.-404    	; 0xa38 <transmit_frame>
     bcc:	0f 90       	pop	r0
     bce:	0f 90       	pop	r0
     bd0:	df 91       	pop	r29
     bd2:	cf 91       	pop	r28
     bd4:	1f 91       	pop	r17
     bd6:	0f 91       	pop	r16
     bd8:	ef 90       	pop	r14
     bda:	cf 90       	pop	r12
     bdc:	af 90       	pop	r10
     bde:	8f 90       	pop	r8
     be0:	08 95       	ret

00000be2 <init_data_reception>:
     be2:	86 e0       	ldi	r24, 0x06	; 6
     be4:	0c 94 26 10 	jmp	0x204c	; 0x204c <tal_rx_enable>
     be8:	08 95       	ret

00000bea <wireless_init>:
     bea:	cf 93       	push	r28
     bec:	df 93       	push	r29
     bee:	00 d0       	rcall	.+0      	; 0xbf0 <wireless_init+0x6>
     bf0:	00 d0       	rcall	.+0      	; 0xbf2 <wireless_init+0x8>
     bf2:	cd b7       	in	r28, 0x3d	; 61
     bf4:	de b7       	in	r29, 0x3e	; 62
     bf6:	45 d0       	rcall	.+138    	; 0xc82 <sysclk_init>
     bf8:	36 d0       	rcall	.+108    	; 0xc66 <board_init>
     bfa:	ba d1       	rcall	.+884    	; 0xf70 <sw_timer_init>
     bfc:	8b d5       	rcall	.+2838   	; 0x1714 <tal_init>
     bfe:	81 11       	cpse	r24, r1
     c00:	ff cf       	rjmp	.-2      	; 0xc00 <wireless_init+0x16>
     c02:	78 94       	sei
     c04:	82 e0       	ldi	r24, 0x02	; 2
     c06:	90 e0       	ldi	r25, 0x00	; 0
     c08:	9a 83       	std	Y+2, r25	; 0x02
     c0a:	89 83       	std	Y+1, r24	; 0x01
     c0c:	8e ef       	ldi	r24, 0xFE	; 254
     c0e:	9a ec       	ldi	r25, 0xCA	; 202
     c10:	9c 83       	std	Y+4, r25	; 0x04
     c12:	8b 83       	std	Y+3, r24	; 0x03
     c14:	8b e0       	ldi	r24, 0x0B	; 11
     c16:	8d 83       	std	Y+5, r24	; 0x05
     c18:	1e 82       	std	Y+6, r1	; 0x06
     c1a:	be 01       	movw	r22, r28
     c1c:	6f 5f       	subi	r22, 0xFF	; 255
     c1e:	7f 4f       	sbci	r23, 0xFF	; 255
     c20:	83 e5       	ldi	r24, 0x53	; 83
     c22:	0e 94 55 0e 	call	0x1caa	; 0x1caa <tal_pib_set>
     c26:	be 01       	movw	r22, r28
     c28:	6d 5f       	subi	r22, 0xFD	; 253
     c2a:	7f 4f       	sbci	r23, 0xFF	; 255
     c2c:	80 e5       	ldi	r24, 0x50	; 80
     c2e:	0e 94 55 0e 	call	0x1caa	; 0x1caa <tal_pib_set>
     c32:	be 01       	movw	r22, r28
     c34:	6b 5f       	subi	r22, 0xFB	; 251
     c36:	7f 4f       	sbci	r23, 0xFF	; 255
     c38:	80 e0       	ldi	r24, 0x00	; 0
     c3a:	0e 94 55 0e 	call	0x1caa	; 0x1caa <tal_pib_set>
     c3e:	be 01       	movw	r22, r28
     c40:	6a 5f       	subi	r22, 0xFA	; 250
     c42:	7f 4f       	sbci	r23, 0xFF	; 255
     c44:	84 e0       	ldi	r24, 0x04	; 4
     c46:	0e 94 55 0e 	call	0x1caa	; 0x1caa <tal_pib_set>
     c4a:	62 e0       	ldi	r22, 0x02	; 2
     c4c:	80 e0       	ldi	r24, 0x00	; 0
     c4e:	0e 94 35 11 	call	0x226a	; 0x226a <tal_ant_div_config>
     c52:	c7 df       	rcall	.-114    	; 0xbe2 <init_data_reception>
     c54:	26 96       	adiw	r28, 0x06	; 6
     c56:	0f b6       	in	r0, 0x3f	; 63
     c58:	f8 94       	cli
     c5a:	de bf       	out	0x3e, r29	; 62
     c5c:	0f be       	out	0x3f, r0	; 63
     c5e:	cd bf       	out	0x3d, r28	; 61
     c60:	df 91       	pop	r29
     c62:	cf 91       	pop	r28
     c64:	08 95       	ret

00000c66 <board_init>:
     c66:	8d b1       	in	r24, 0x0d	; 13
     c68:	8e 7f       	andi	r24, 0xFE	; 254
     c6a:	9e b1       	in	r25, 0x0e	; 14
     c6c:	5e 9a       	sbi	0x0b, 6	; 11
     c6e:	56 9a       	sbi	0x0a, 6	; 10
     c70:	a2 9a       	sbi	0x14, 2	; 20
     c72:	9a 9a       	sbi	0x13, 2	; 19
     c74:	95 60       	ori	r25, 0x05	; 5
     c76:	9e b9       	out	0x0e, r25	; 14
     c78:	84 60       	ori	r24, 0x04	; 4
     c7a:	8d b9       	out	0x0d, r24	; 13
     c7c:	08 95       	ret

00000c7e <modules_init>:
     c7e:	f0 cc       	rjmp	.-1568   	; 0x660 <sio2host_init>
     c80:	08 95       	ret

00000c82 <sysclk_init>:
     c82:	cf 93       	push	r28
     c84:	df 93       	push	r29
     c86:	1f 92       	push	r1
     c88:	cd b7       	in	r28, 0x3d	; 61
     c8a:	de b7       	in	r29, 0x3e	; 62
     c8c:	8f ef       	ldi	r24, 0xFF	; 255
     c8e:	80 93 64 00 	sts	0x0064, r24	; 0x800064 <__TEXT_REGION_LENGTH__+0x7c0064>
     c92:	80 93 65 00 	sts	0x0065, r24	; 0x800065 <__TEXT_REGION_LENGTH__+0x7c0065>
     c96:	8f b7       	in	r24, 0x3f	; 63
     c98:	89 83       	std	Y+1, r24	; 0x01
     c9a:	f8 94       	cli
     c9c:	89 81       	ldd	r24, Y+1	; 0x01
     c9e:	5f 93       	push	r21
     ca0:	50 e8       	ldi	r21, 0x80	; 128
     ca2:	50 93 61 00 	sts	0x0061, r21	; 0x800061 <__TEXT_REGION_LENGTH__+0x7c0061>
     ca6:	50 e0       	ldi	r21, 0x00	; 0
     ca8:	50 93 61 00 	sts	0x0061, r21	; 0x800061 <__TEXT_REGION_LENGTH__+0x7c0061>
     cac:	5f 91       	pop	r21
     cae:	8f bf       	out	0x3f, r24	; 63
     cb0:	0f 90       	pop	r0
     cb2:	df 91       	pop	r29
     cb4:	cf 91       	pop	r28
     cb6:	08 95       	ret

00000cb8 <sysclk_enable_module>:
     cb8:	cf 93       	push	r28
     cba:	df 93       	push	r29
     cbc:	1f 92       	push	r1
     cbe:	cd b7       	in	r28, 0x3d	; 61
     cc0:	de b7       	in	r29, 0x3e	; 62
     cc2:	9f b7       	in	r25, 0x3f	; 63
     cc4:	99 83       	std	Y+1, r25	; 0x01
     cc6:	f8 94       	cli
     cc8:	99 81       	ldd	r25, Y+1	; 0x01
     cca:	82 30       	cpi	r24, 0x02	; 2
     ccc:	40 f4       	brcc	.+16     	; 0xcde <sysclk_enable_module+0x26>
     cce:	e8 2f       	mov	r30, r24
     cd0:	f0 e0       	ldi	r31, 0x00	; 0
     cd2:	ec 59       	subi	r30, 0x9C	; 156
     cd4:	ff 4f       	sbci	r31, 0xFF	; 255
     cd6:	60 95       	com	r22
     cd8:	80 81       	ld	r24, Z
     cda:	68 23       	and	r22, r24
     cdc:	60 83       	st	Z, r22
     cde:	9f bf       	out	0x3f, r25	; 63
     ce0:	0f 90       	pop	r0
     ce2:	df 91       	pop	r29
     ce4:	cf 91       	pop	r28
     ce6:	08 95       	ret

00000ce8 <sysclk_disable_module>:
     ce8:	cf 93       	push	r28
     cea:	df 93       	push	r29
     cec:	1f 92       	push	r1
     cee:	cd b7       	in	r28, 0x3d	; 61
     cf0:	de b7       	in	r29, 0x3e	; 62
     cf2:	9f b7       	in	r25, 0x3f	; 63
     cf4:	99 83       	std	Y+1, r25	; 0x01
     cf6:	f8 94       	cli
     cf8:	99 81       	ldd	r25, Y+1	; 0x01
     cfa:	82 30       	cpi	r24, 0x02	; 2
     cfc:	38 f4       	brcc	.+14     	; 0xd0c <sysclk_disable_module+0x24>
     cfe:	e8 2f       	mov	r30, r24
     d00:	f0 e0       	ldi	r31, 0x00	; 0
     d02:	ec 59       	subi	r30, 0x9C	; 156
     d04:	ff 4f       	sbci	r31, 0xFF	; 255
     d06:	80 81       	ld	r24, Z
     d08:	68 2b       	or	r22, r24
     d0a:	60 83       	st	Z, r22
     d0c:	9f bf       	out	0x3f, r25	; 63
     d0e:	0f 90       	pop	r0
     d10:	df 91       	pop	r29
     d12:	cf 91       	pop	r28
     d14:	08 95       	ret

00000d16 <hw_expiry_cb>:
     d16:	80 91 cc 03 	lds	r24, 0x03CC	; 0x8003cc <running_timers>
     d1a:	88 23       	and	r24, r24
     d1c:	19 f0       	breq	.+6      	; 0xd24 <hw_expiry_cb+0xe>
     d1e:	81 e0       	ldi	r24, 0x01	; 1
     d20:	80 93 7f 54 	sts	0x547F, r24	; 0x80547f <timer_trigger>
     d24:	08 95       	ret

00000d26 <hw_overflow_cb>:
     d26:	1f 93       	push	r17
     d28:	cf 93       	push	r28
     d2a:	df 93       	push	r29
     d2c:	1f 92       	push	r1
     d2e:	cd b7       	in	r28, 0x3d	; 61
     d30:	de b7       	in	r29, 0x3e	; 62
     d32:	80 91 4b 54 	lds	r24, 0x544B	; 0x80544b <sys_time>
     d36:	90 91 4c 54 	lds	r25, 0x544C	; 0x80544c <sys_time+0x1>
     d3a:	01 96       	adiw	r24, 0x01	; 1
     d3c:	90 93 4c 54 	sts	0x544C, r25	; 0x80544c <sys_time+0x1>
     d40:	80 93 4b 54 	sts	0x544B, r24	; 0x80544b <sys_time>
     d44:	8f b7       	in	r24, 0x3f	; 63
     d46:	89 83       	std	Y+1, r24	; 0x01
     d48:	f8 94       	cli
     d4a:	19 81       	ldd	r17, Y+1	; 0x01
     d4c:	80 91 cb 03 	lds	r24, 0x03CB	; 0x8003cb <running_timer_queue_head>
     d50:	8f 3f       	cpi	r24, 0xFF	; 255
     d52:	e9 f1       	breq	.+122    	; 0xdce <hw_overflow_cb+0xa8>
     d54:	90 e0       	ldi	r25, 0x00	; 0
     d56:	fc 01       	movw	r30, r24
     d58:	ee 0f       	add	r30, r30
     d5a:	ff 1f       	adc	r31, r31
     d5c:	9c 01       	movw	r18, r24
     d5e:	22 0f       	add	r18, r18
     d60:	33 1f       	adc	r19, r19
     d62:	22 0f       	add	r18, r18
     d64:	33 1f       	adc	r19, r19
     d66:	22 0f       	add	r18, r18
     d68:	33 1f       	adc	r19, r19
     d6a:	e2 0f       	add	r30, r18
     d6c:	f3 1f       	adc	r31, r19
     d6e:	e3 5b       	subi	r30, 0xB3	; 179
     d70:	fb 4a       	sbci	r31, 0xAB	; 171
     d72:	21 85       	ldd	r18, Z+9	; 0x09
     d74:	21 11       	cpse	r18, r1
     d76:	2b c0       	rjmp	.+86     	; 0xdce <hw_overflow_cb+0xa8>
     d78:	fc 01       	movw	r30, r24
     d7a:	ee 0f       	add	r30, r30
     d7c:	ff 1f       	adc	r31, r31
     d7e:	88 0f       	add	r24, r24
     d80:	99 1f       	adc	r25, r25
     d82:	88 0f       	add	r24, r24
     d84:	99 1f       	adc	r25, r25
     d86:	88 0f       	add	r24, r24
     d88:	99 1f       	adc	r25, r25
     d8a:	e8 0f       	add	r30, r24
     d8c:	f9 1f       	adc	r31, r25
     d8e:	e3 5b       	subi	r30, 0xB3	; 179
     d90:	fb 4a       	sbci	r31, 0xAB	; 171
     d92:	80 81       	ld	r24, Z
     d94:	91 81       	ldd	r25, Z+1	; 0x01
     d96:	a2 81       	ldd	r26, Z+2	; 0x02
     d98:	b3 81       	ldd	r27, Z+3	; 0x03
     d9a:	20 91 4b 54 	lds	r18, 0x544B	; 0x80544b <sys_time>
     d9e:	30 91 4c 54 	lds	r19, 0x544C	; 0x80544c <sys_time+0x1>
     da2:	2a 17       	cp	r18, r26
     da4:	3b 07       	cpc	r19, r27
     da6:	99 f4       	brne	.+38     	; 0xdce <hw_overflow_cb+0xa8>
     da8:	49 da       	rcall	.-2926   	; 0x23c <common_tc_delay>
     daa:	80 91 cb 03 	lds	r24, 0x03CB	; 0x8003cb <running_timer_queue_head>
     dae:	90 e0       	ldi	r25, 0x00	; 0
     db0:	fc 01       	movw	r30, r24
     db2:	ee 0f       	add	r30, r30
     db4:	ff 1f       	adc	r31, r31
     db6:	88 0f       	add	r24, r24
     db8:	99 1f       	adc	r25, r25
     dba:	88 0f       	add	r24, r24
     dbc:	99 1f       	adc	r25, r25
     dbe:	88 0f       	add	r24, r24
     dc0:	99 1f       	adc	r25, r25
     dc2:	e8 0f       	add	r30, r24
     dc4:	f9 1f       	adc	r31, r25
     dc6:	e3 5b       	subi	r30, 0xB3	; 179
     dc8:	fb 4a       	sbci	r31, 0xAB	; 171
     dca:	81 e0       	ldi	r24, 0x01	; 1
     dcc:	81 87       	std	Z+9, r24	; 0x09
     dce:	1f bf       	out	0x3f, r17	; 63
     dd0:	0f 90       	pop	r0
     dd2:	df 91       	pop	r29
     dd4:	cf 91       	pop	r28
     dd6:	1f 91       	pop	r17
     dd8:	08 95       	ret

00000dda <load_hw_timer>:
     dda:	0f 93       	push	r16
     ddc:	1f 93       	push	r17
     dde:	cf 93       	push	r28
     de0:	df 93       	push	r29
     de2:	c8 2f       	mov	r28, r24
     de4:	8f 3f       	cpi	r24, 0xFF	; 255
     de6:	09 f4       	brne	.+2      	; 0xdea <load_hw_timer+0x10>
     de8:	60 c0       	rjmp	.+192    	; 0xeaa <load_hw_timer+0xd0>
     dea:	00 91 4b 54 	lds	r16, 0x544B	; 0x80544b <sys_time>
     dee:	10 91 4c 54 	lds	r17, 0x544C	; 0x80544c <sys_time+0x1>
     df2:	e1 d9       	rcall	.-3134   	; 0x1b6 <common_tc_read_count>
     df4:	40 91 4b 54 	lds	r20, 0x544B	; 0x80544b <sys_time>
     df8:	50 91 4c 54 	lds	r21, 0x544C	; 0x80544c <sys_time+0x1>
     dfc:	04 17       	cp	r16, r20
     dfe:	15 07       	cpc	r17, r21
     e00:	a1 f7       	brne	.-24     	; 0xdea <load_hw_timer+0x10>
     e02:	d0 e0       	ldi	r29, 0x00	; 0
     e04:	60 e0       	ldi	r22, 0x00	; 0
     e06:	70 e0       	ldi	r23, 0x00	; 0
     e08:	fe 01       	movw	r30, r28
     e0a:	ee 0f       	add	r30, r30
     e0c:	ff 1f       	adc	r31, r31
     e0e:	9e 01       	movw	r18, r28
     e10:	22 0f       	add	r18, r18
     e12:	33 1f       	adc	r19, r19
     e14:	22 0f       	add	r18, r18
     e16:	33 1f       	adc	r19, r19
     e18:	22 0f       	add	r18, r18
     e1a:	33 1f       	adc	r19, r19
     e1c:	e2 0f       	add	r30, r18
     e1e:	f3 1f       	adc	r31, r19
     e20:	e3 5b       	subi	r30, 0xB3	; 179
     e22:	fb 4a       	sbci	r31, 0xAB	; 171
     e24:	ba 01       	movw	r22, r20
     e26:	55 27       	eor	r21, r21
     e28:	44 27       	eor	r20, r20
     e2a:	a0 e0       	ldi	r26, 0x00	; 0
     e2c:	b0 e0       	ldi	r27, 0x00	; 0
     e2e:	48 2b       	or	r20, r24
     e30:	59 2b       	or	r21, r25
     e32:	6a 2b       	or	r22, r26
     e34:	7b 2b       	or	r23, r27
     e36:	80 81       	ld	r24, Z
     e38:	91 81       	ldd	r25, Z+1	; 0x01
     e3a:	a2 81       	ldd	r26, Z+2	; 0x02
     e3c:	b3 81       	ldd	r27, Z+3	; 0x03
     e3e:	84 1b       	sub	r24, r20
     e40:	95 0b       	sbc	r25, r21
     e42:	a6 0b       	sbc	r26, r22
     e44:	b7 0b       	sbc	r27, r23
     e46:	8f 3f       	cpi	r24, 0xFF	; 255
     e48:	2f ef       	ldi	r18, 0xFF	; 255
     e4a:	92 07       	cpc	r25, r18
     e4c:	a2 07       	cpc	r26, r18
     e4e:	2f e7       	ldi	r18, 0x7F	; 127
     e50:	b2 07       	cpc	r27, r18
     e52:	38 f5       	brcc	.+78     	; 0xea2 <load_hw_timer+0xc8>
     e54:	9e 01       	movw	r18, r28
     e56:	22 0f       	add	r18, r18
     e58:	33 1f       	adc	r19, r19
     e5a:	22 0f       	add	r18, r18
     e5c:	33 1f       	adc	r19, r19
     e5e:	22 0f       	add	r18, r18
     e60:	33 1f       	adc	r19, r19
     e62:	fe 01       	movw	r30, r28
     e64:	ee 0f       	add	r30, r30
     e66:	ff 1f       	adc	r31, r31
     e68:	e2 0f       	add	r30, r18
     e6a:	f3 1f       	adc	r31, r19
     e6c:	e3 5b       	subi	r30, 0xB3	; 179
     e6e:	fb 4a       	sbci	r31, 0xAB	; 171
     e70:	21 85       	ldd	r18, Z+9	; 0x09
     e72:	21 11       	cpse	r18, r1
     e74:	1b c0       	rjmp	.+54     	; 0xeac <load_hw_timer+0xd2>
     e76:	00 97       	sbiw	r24, 0x00	; 0
     e78:	21 e0       	ldi	r18, 0x01	; 1
     e7a:	a2 07       	cpc	r26, r18
     e7c:	b1 05       	cpc	r27, r1
     e7e:	b0 f4       	brcc	.+44     	; 0xeac <load_hw_timer+0xd2>
     e80:	dd d9       	rcall	.-3142   	; 0x23c <common_tc_delay>
     e82:	ce 01       	movw	r24, r28
     e84:	88 0f       	add	r24, r24
     e86:	99 1f       	adc	r25, r25
     e88:	cc 0f       	add	r28, r28
     e8a:	dd 1f       	adc	r29, r29
     e8c:	cc 0f       	add	r28, r28
     e8e:	dd 1f       	adc	r29, r29
     e90:	cc 0f       	add	r28, r28
     e92:	dd 1f       	adc	r29, r29
     e94:	c8 0f       	add	r28, r24
     e96:	d9 1f       	adc	r29, r25
     e98:	c3 5b       	subi	r28, 0xB3	; 179
     e9a:	db 4a       	sbci	r29, 0xAB	; 171
     e9c:	81 e0       	ldi	r24, 0x01	; 1
     e9e:	89 87       	std	Y+9, r24	; 0x09
     ea0:	05 c0       	rjmp	.+10     	; 0xeac <load_hw_timer+0xd2>
     ea2:	81 e0       	ldi	r24, 0x01	; 1
     ea4:	80 93 7f 54 	sts	0x547F, r24	; 0x80547f <timer_trigger>
     ea8:	01 c0       	rjmp	.+2      	; 0xeac <load_hw_timer+0xd2>
     eaa:	ad d9       	rcall	.-3238   	; 0x206 <common_tc_compare_stop>
     eac:	df 91       	pop	r29
     eae:	cf 91       	pop	r28
     eb0:	1f 91       	pop	r17
     eb2:	0f 91       	pop	r16
     eb4:	08 95       	ret

00000eb6 <internal_timer_handler>:
     eb6:	80 91 7f 54 	lds	r24, 0x547F	; 0x80547f <timer_trigger>
     eba:	88 23       	and	r24, r24
     ebc:	09 f4       	brne	.+2      	; 0xec0 <internal_timer_handler+0xa>
     ebe:	57 c0       	rjmp	.+174    	; 0xf6e <internal_timer_handler+0xb8>
     ec0:	10 92 7f 54 	sts	0x547F, r1	; 0x80547f <timer_trigger>
     ec4:	80 91 cc 03 	lds	r24, 0x03CC	; 0x8003cc <running_timers>
     ec8:	88 23       	and	r24, r24
     eca:	09 f4       	brne	.+2      	; 0xece <internal_timer_handler+0x18>
     ecc:	50 c0       	rjmp	.+160    	; 0xf6e <internal_timer_handler+0xb8>
     ece:	80 91 ca 03 	lds	r24, 0x03CA	; 0x8003ca <expired_timer_queue_head>
     ed2:	8f 3f       	cpi	r24, 0xFF	; 255
     ed4:	59 f4       	brne	.+22     	; 0xeec <internal_timer_handler+0x36>
     ed6:	80 91 c9 03 	lds	r24, 0x03C9	; 0x8003c9 <expired_timer_queue_tail>
     eda:	8f 3f       	cpi	r24, 0xFF	; 255
     edc:	39 f4       	brne	.+14     	; 0xeec <internal_timer_handler+0x36>
     ede:	80 91 cb 03 	lds	r24, 0x03CB	; 0x8003cb <running_timer_queue_head>
     ee2:	80 93 c9 03 	sts	0x03C9, r24	; 0x8003c9 <expired_timer_queue_tail>
     ee6:	80 93 ca 03 	sts	0x03CA, r24	; 0x8003ca <expired_timer_queue_head>
     eea:	15 c0       	rjmp	.+42     	; 0xf16 <internal_timer_handler+0x60>
     eec:	20 91 cb 03 	lds	r18, 0x03CB	; 0x8003cb <running_timer_queue_head>
     ef0:	80 91 c9 03 	lds	r24, 0x03C9	; 0x8003c9 <expired_timer_queue_tail>
     ef4:	90 e0       	ldi	r25, 0x00	; 0
     ef6:	fc 01       	movw	r30, r24
     ef8:	ee 0f       	add	r30, r30
     efa:	ff 1f       	adc	r31, r31
     efc:	88 0f       	add	r24, r24
     efe:	99 1f       	adc	r25, r25
     f00:	88 0f       	add	r24, r24
     f02:	99 1f       	adc	r25, r25
     f04:	88 0f       	add	r24, r24
     f06:	99 1f       	adc	r25, r25
     f08:	e8 0f       	add	r30, r24
     f0a:	f9 1f       	adc	r31, r25
     f0c:	e3 5b       	subi	r30, 0xB3	; 179
     f0e:	fb 4a       	sbci	r31, 0xAB	; 171
     f10:	20 87       	std	Z+8, r18	; 0x08
     f12:	20 93 c9 03 	sts	0x03C9, r18	; 0x8003c9 <expired_timer_queue_tail>
     f16:	80 91 cb 03 	lds	r24, 0x03CB	; 0x8003cb <running_timer_queue_head>
     f1a:	90 e0       	ldi	r25, 0x00	; 0
     f1c:	fc 01       	movw	r30, r24
     f1e:	ee 0f       	add	r30, r30
     f20:	ff 1f       	adc	r31, r31
     f22:	88 0f       	add	r24, r24
     f24:	99 1f       	adc	r25, r25
     f26:	88 0f       	add	r24, r24
     f28:	99 1f       	adc	r25, r25
     f2a:	88 0f       	add	r24, r24
     f2c:	99 1f       	adc	r25, r25
     f2e:	e8 0f       	add	r30, r24
     f30:	f9 1f       	adc	r31, r25
     f32:	e3 5b       	subi	r30, 0xB3	; 179
     f34:	fb 4a       	sbci	r31, 0xAB	; 171
     f36:	80 85       	ldd	r24, Z+8	; 0x08
     f38:	80 93 cb 03 	sts	0x03CB, r24	; 0x8003cb <running_timer_queue_head>
     f3c:	20 91 c9 03 	lds	r18, 0x03C9	; 0x8003c9 <expired_timer_queue_tail>
     f40:	30 e0       	ldi	r19, 0x00	; 0
     f42:	f9 01       	movw	r30, r18
     f44:	ee 0f       	add	r30, r30
     f46:	ff 1f       	adc	r31, r31
     f48:	22 0f       	add	r18, r18
     f4a:	33 1f       	adc	r19, r19
     f4c:	22 0f       	add	r18, r18
     f4e:	33 1f       	adc	r19, r19
     f50:	22 0f       	add	r18, r18
     f52:	33 1f       	adc	r19, r19
     f54:	e2 0f       	add	r30, r18
     f56:	f3 1f       	adc	r31, r19
     f58:	e3 5b       	subi	r30, 0xB3	; 179
     f5a:	fb 4a       	sbci	r31, 0xAB	; 171
     f5c:	9f ef       	ldi	r25, 0xFF	; 255
     f5e:	90 87       	std	Z+8, r25	; 0x08
     f60:	90 91 cc 03 	lds	r25, 0x03CC	; 0x8003cc <running_timers>
     f64:	91 50       	subi	r25, 0x01	; 1
     f66:	90 93 cc 03 	sts	0x03CC, r25	; 0x8003cc <running_timers>
     f6a:	91 11       	cpse	r25, r1
     f6c:	36 cf       	rjmp	.-404    	; 0xdda <load_hw_timer>
     f6e:	08 95       	ret

00000f70 <sw_timer_init>:
     f70:	10 92 cc 03 	sts	0x03CC, r1	; 0x8003cc <running_timers>
     f74:	10 92 7f 54 	sts	0x547F, r1	; 0x80547f <timer_trigger>
     f78:	10 92 4c 54 	sts	0x544C, r1	; 0x80544c <sys_time+0x1>
     f7c:	10 92 4b 54 	sts	0x544B, r1	; 0x80544b <sys_time>
     f80:	8f ef       	ldi	r24, 0xFF	; 255
     f82:	80 93 cb 03 	sts	0x03CB, r24	; 0x8003cb <running_timer_queue_head>
     f86:	80 93 ca 03 	sts	0x03CA, r24	; 0x8003ca <expired_timer_queue_head>
     f8a:	80 93 c9 03 	sts	0x03C9, r24	; 0x8003c9 <expired_timer_queue_tail>
     f8e:	ed e4       	ldi	r30, 0x4D	; 77
     f90:	f4 e5       	ldi	r31, 0x54	; 84
     f92:	2f e7       	ldi	r18, 0x7F	; 127
     f94:	34 e5       	ldi	r19, 0x54	; 84
     f96:	80 87       	std	Z+8, r24	; 0x08
     f98:	15 82       	std	Z+5, r1	; 0x05
     f9a:	14 82       	std	Z+4, r1	; 0x04
     f9c:	3a 96       	adiw	r30, 0x0a	; 10
     f9e:	e2 17       	cp	r30, r18
     fa0:	f3 07       	cpc	r31, r19
     fa2:	c9 f7       	brne	.-14     	; 0xf96 <sw_timer_init+0x26>
     fa4:	10 92 c8 03 	sts	0x03C8, r1	; 0x8003c8 <alloc_timer_id>
     fa8:	83 e9       	ldi	r24, 0x93	; 147
     faa:	96 e0       	ldi	r25, 0x06	; 6
     fac:	05 da       	rcall	.-3062   	; 0x3b8 <set_common_tc_overflow_callback>
     fae:	8b e8       	ldi	r24, 0x8B	; 139
     fb0:	96 e0       	ldi	r25, 0x06	; 6
     fb2:	07 da       	rcall	.-3058   	; 0x3c2 <set_common_tc_expiry_callback>
     fb4:	b8 c9       	rjmp	.-3216   	; 0x326 <common_tc_init>
     fb6:	08 95       	ret

00000fb8 <sw_timer_service>:
     fb8:	0f 93       	push	r16
     fba:	1f 93       	push	r17
     fbc:	cf 93       	push	r28
     fbe:	df 93       	push	r29
     fc0:	1f 92       	push	r1
     fc2:	1f 92       	push	r1
     fc4:	cd b7       	in	r28, 0x3d	; 61
     fc6:	de b7       	in	r29, 0x3e	; 62
     fc8:	8f b7       	in	r24, 0x3f	; 63
     fca:	8a 83       	std	Y+2, r24	; 0x02
     fcc:	f8 94       	cli
     fce:	1a 81       	ldd	r17, Y+2	; 0x02
     fd0:	72 df       	rcall	.-284    	; 0xeb6 <internal_timer_handler>
     fd2:	1f bf       	out	0x3f, r17	; 63
     fd4:	1f ef       	ldi	r17, 0xFF	; 255
     fd6:	01 2f       	mov	r16, r17
     fd8:	37 c0       	rjmp	.+110    	; 0x1048 <sw_timer_service+0x90>
     fda:	8f b7       	in	r24, 0x3f	; 63
     fdc:	89 83       	std	Y+1, r24	; 0x01
     fde:	f8 94       	cli
     fe0:	29 81       	ldd	r18, Y+1	; 0x01
     fe2:	80 91 ca 03 	lds	r24, 0x03CA	; 0x8003ca <expired_timer_queue_head>
     fe6:	90 e0       	ldi	r25, 0x00	; 0
     fe8:	dc 01       	movw	r26, r24
     fea:	aa 0f       	add	r26, r26
     fec:	bb 1f       	adc	r27, r27
     fee:	88 0f       	add	r24, r24
     ff0:	99 1f       	adc	r25, r25
     ff2:	88 0f       	add	r24, r24
     ff4:	99 1f       	adc	r25, r25
     ff6:	88 0f       	add	r24, r24
     ff8:	99 1f       	adc	r25, r25
     ffa:	a8 0f       	add	r26, r24
     ffc:	b9 1f       	adc	r27, r25
     ffe:	a3 5b       	subi	r26, 0xB3	; 179
    1000:	bb 4a       	sbci	r27, 0xAB	; 171
    1002:	18 96       	adiw	r26, 0x08	; 8
    1004:	9c 91       	ld	r25, X
    1006:	18 97       	sbiw	r26, 0x08	; 8
    1008:	14 96       	adiw	r26, 0x04	; 4
    100a:	ed 91       	ld	r30, X+
    100c:	fc 91       	ld	r31, X
    100e:	15 97       	sbiw	r26, 0x05	; 5
    1010:	16 96       	adiw	r26, 0x06	; 6
    1012:	4d 91       	ld	r20, X+
    1014:	5c 91       	ld	r21, X
    1016:	17 97       	sbiw	r26, 0x07	; 7
    1018:	18 96       	adiw	r26, 0x08	; 8
    101a:	1c 93       	st	X, r17
    101c:	18 97       	sbiw	r26, 0x08	; 8
    101e:	15 96       	adiw	r26, 0x05	; 5
    1020:	1c 92       	st	X, r1
    1022:	1e 92       	st	-X, r1
    1024:	14 97       	sbiw	r26, 0x04	; 4
    1026:	17 96       	adiw	r26, 0x07	; 7
    1028:	1c 92       	st	X, r1
    102a:	1e 92       	st	-X, r1
    102c:	16 97       	sbiw	r26, 0x06	; 6
    102e:	19 96       	adiw	r26, 0x09	; 9
    1030:	1c 92       	st	X, r1
    1032:	90 93 ca 03 	sts	0x03CA, r25	; 0x8003ca <expired_timer_queue_head>
    1036:	9f 3f       	cpi	r25, 0xFF	; 255
    1038:	11 f4       	brne	.+4      	; 0x103e <sw_timer_service+0x86>
    103a:	00 93 c9 03 	sts	0x03C9, r16	; 0x8003c9 <expired_timer_queue_tail>
    103e:	2f bf       	out	0x3f, r18	; 63
    1040:	30 97       	sbiw	r30, 0x00	; 0
    1042:	11 f0       	breq	.+4      	; 0x1048 <sw_timer_service+0x90>
    1044:	ca 01       	movw	r24, r20
    1046:	19 95       	eicall
    1048:	80 91 ca 03 	lds	r24, 0x03CA	; 0x8003ca <expired_timer_queue_head>
    104c:	8f 3f       	cpi	r24, 0xFF	; 255
    104e:	29 f6       	brne	.-118    	; 0xfda <sw_timer_service+0x22>
    1050:	0f 90       	pop	r0
    1052:	0f 90       	pop	r0
    1054:	df 91       	pop	r29
    1056:	cf 91       	pop	r28
    1058:	1f 91       	pop	r17
    105a:	0f 91       	pop	r16
    105c:	08 95       	ret

0000105e <pal_init>:
    105e:	80 e0       	ldi	r24, 0x00	; 0
    1060:	08 95       	ret

00001062 <pal_task>:
    1062:	aa cf       	rjmp	.-172    	; 0xfb8 <sw_timer_service>
    1064:	08 95       	ret

00001066 <bmm_buffer_init>:
    1066:	cf 93       	push	r28
    1068:	df 93       	push	r29
    106a:	8d ec       	ldi	r24, 0xCD	; 205
    106c:	93 e0       	ldi	r25, 0x03	; 3
    106e:	b0 d0       	rcall	.+352    	; 0x11d0 <qmm_queue_init>
    1070:	c2 ed       	ldi	r28, 0xD2	; 210
    1072:	d3 e0       	ldi	r29, 0x03	; 3
    1074:	8e ed       	ldi	r24, 0xDE	; 222
    1076:	93 e0       	ldi	r25, 0x03	; 3
    1078:	99 83       	std	Y+1, r25	; 0x01
    107a:	88 83       	st	Y, r24
    107c:	be 01       	movw	r22, r28
    107e:	8d ec       	ldi	r24, 0xCD	; 205
    1080:	93 e0       	ldi	r25, 0x03	; 3
    1082:	ad d0       	rcall	.+346    	; 0x11de <qmm_queue_append>
    1084:	89 e6       	ldi	r24, 0x69	; 105
    1086:	94 e0       	ldi	r25, 0x04	; 4
    1088:	9d 83       	std	Y+5, r25	; 0x05
    108a:	8c 83       	std	Y+4, r24	; 0x04
    108c:	66 ed       	ldi	r22, 0xD6	; 214
    108e:	73 e0       	ldi	r23, 0x03	; 3
    1090:	8d ec       	ldi	r24, 0xCD	; 205
    1092:	93 e0       	ldi	r25, 0x03	; 3
    1094:	a4 d0       	rcall	.+328    	; 0x11de <qmm_queue_append>
    1096:	84 ef       	ldi	r24, 0xF4	; 244
    1098:	94 e0       	ldi	r25, 0x04	; 4
    109a:	99 87       	std	Y+9, r25	; 0x09
    109c:	88 87       	std	Y+8, r24	; 0x08
    109e:	6a ed       	ldi	r22, 0xDA	; 218
    10a0:	73 e0       	ldi	r23, 0x03	; 3
    10a2:	8d ec       	ldi	r24, 0xCD	; 205
    10a4:	93 e0       	ldi	r25, 0x03	; 3
    10a6:	9b d0       	rcall	.+310    	; 0x11de <qmm_queue_append>
    10a8:	df 91       	pop	r29
    10aa:	cf 91       	pop	r28
    10ac:	08 95       	ret

000010ae <bmm_buffer_alloc>:
    10ae:	60 e0       	ldi	r22, 0x00	; 0
    10b0:	70 e0       	ldi	r23, 0x00	; 0
    10b2:	8d ec       	ldi	r24, 0xCD	; 205
    10b4:	93 e0       	ldi	r25, 0x03	; 3
    10b6:	b8 c0       	rjmp	.+368    	; 0x1228 <qmm_queue_remove>
    10b8:	08 95       	ret

000010ba <bmm_buffer_free>:
    10ba:	00 97       	sbiw	r24, 0x00	; 0
    10bc:	21 f0       	breq	.+8      	; 0x10c6 <bmm_buffer_free+0xc>
    10be:	bc 01       	movw	r22, r24
    10c0:	8d ec       	ldi	r24, 0xCD	; 205
    10c2:	93 e0       	ldi	r25, 0x03	; 3
    10c4:	8c c0       	rjmp	.+280    	; 0x11de <qmm_queue_append>
    10c6:	08 95       	ret

000010c8 <queue_read_or_remove>:
    10c8:	8f 92       	push	r8
    10ca:	9f 92       	push	r9
    10cc:	af 92       	push	r10
    10ce:	bf 92       	push	r11
    10d0:	cf 92       	push	r12
    10d2:	df 92       	push	r13
    10d4:	ef 92       	push	r14
    10d6:	ff 92       	push	r15
    10d8:	0f 93       	push	r16
    10da:	1f 93       	push	r17
    10dc:	cf 93       	push	r28
    10de:	df 93       	push	r29
    10e0:	1f 92       	push	r1
    10e2:	cd b7       	in	r28, 0x3d	; 61
    10e4:	de b7       	in	r29, 0x3e	; 62
    10e6:	2f b7       	in	r18, 0x3f	; 63
    10e8:	29 83       	std	Y+1, r18	; 0x01
    10ea:	f8 94       	cli
    10ec:	89 80       	ldd	r8, Y+1	; 0x01
    10ee:	dc 01       	movw	r26, r24
    10f0:	14 96       	adiw	r26, 0x04	; 4
    10f2:	2c 91       	ld	r18, X
    10f4:	22 23       	and	r18, r18
    10f6:	09 f4       	brne	.+2      	; 0x10fa <queue_read_or_remove+0x32>
    10f8:	56 c0       	rjmp	.+172    	; 0x11a6 <queue_read_or_remove+0xde>
    10fa:	7a 01       	movw	r14, r20
    10fc:	96 2e       	mov	r9, r22
    10fe:	5c 01       	movw	r10, r24
    1100:	fc 01       	movw	r30, r24
    1102:	00 81       	ld	r16, Z
    1104:	11 81       	ldd	r17, Z+1	; 0x01
    1106:	45 2b       	or	r20, r21
    1108:	e1 f0       	breq	.+56     	; 0x1142 <queue_read_or_remove+0x7a>
    110a:	01 15       	cp	r16, r1
    110c:	11 05       	cpc	r17, r1
    110e:	09 f4       	brne	.+2      	; 0x1112 <queue_read_or_remove+0x4a>
    1110:	4d c0       	rjmp	.+154    	; 0x11ac <queue_read_or_remove+0xe4>
    1112:	68 01       	movw	r12, r16
    1114:	01 c0       	rjmp	.+2      	; 0x1118 <queue_read_or_remove+0x50>
    1116:	89 01       	movw	r16, r18
    1118:	d7 01       	movw	r26, r14
    111a:	12 96       	adiw	r26, 0x02	; 2
    111c:	6d 91       	ld	r22, X+
    111e:	7c 91       	ld	r23, X
    1120:	13 97       	sbiw	r26, 0x03	; 3
    1122:	ed 91       	ld	r30, X+
    1124:	fc 91       	ld	r31, X
    1126:	d8 01       	movw	r26, r16
    1128:	8d 91       	ld	r24, X+
    112a:	9c 91       	ld	r25, X
    112c:	19 95       	eicall
    112e:	81 11       	cpse	r24, r1
    1130:	09 c0       	rjmp	.+18     	; 0x1144 <queue_read_or_remove+0x7c>
    1132:	f8 01       	movw	r30, r16
    1134:	22 81       	ldd	r18, Z+2	; 0x02
    1136:	33 81       	ldd	r19, Z+3	; 0x03
    1138:	68 01       	movw	r12, r16
    113a:	21 15       	cp	r18, r1
    113c:	31 05       	cpc	r19, r1
    113e:	59 f7       	brne	.-42     	; 0x1116 <queue_read_or_remove+0x4e>
    1140:	35 c0       	rjmp	.+106    	; 0x11ac <queue_read_or_remove+0xe4>
    1142:	68 01       	movw	r12, r16
    1144:	01 15       	cp	r16, r1
    1146:	11 05       	cpc	r17, r1
    1148:	99 f1       	breq	.+102    	; 0x11b0 <queue_read_or_remove+0xe8>
    114a:	91 10       	cpse	r9, r1
    114c:	31 c0       	rjmp	.+98     	; 0x11b0 <queue_read_or_remove+0xe8>
    114e:	d5 01       	movw	r26, r10
    1150:	8d 91       	ld	r24, X+
    1152:	9c 91       	ld	r25, X
    1154:	11 97       	sbiw	r26, 0x01	; 1
    1156:	08 17       	cp	r16, r24
    1158:	19 07       	cpc	r17, r25
    115a:	31 f4       	brne	.+12     	; 0x1168 <queue_read_or_remove+0xa0>
    115c:	f8 01       	movw	r30, r16
    115e:	82 81       	ldd	r24, Z+2	; 0x02
    1160:	93 81       	ldd	r25, Z+3	; 0x03
    1162:	8d 93       	st	X+, r24
    1164:	9c 93       	st	X, r25
    1166:	08 c0       	rjmp	.+16     	; 0x1178 <queue_read_or_remove+0xb0>
    1168:	d8 01       	movw	r26, r16
    116a:	12 96       	adiw	r26, 0x02	; 2
    116c:	8d 91       	ld	r24, X+
    116e:	9c 91       	ld	r25, X
    1170:	13 97       	sbiw	r26, 0x03	; 3
    1172:	f6 01       	movw	r30, r12
    1174:	93 83       	std	Z+3, r25	; 0x03
    1176:	82 83       	std	Z+2, r24	; 0x02
    1178:	d5 01       	movw	r26, r10
    117a:	12 96       	adiw	r26, 0x02	; 2
    117c:	8d 91       	ld	r24, X+
    117e:	9c 91       	ld	r25, X
    1180:	13 97       	sbiw	r26, 0x03	; 3
    1182:	08 17       	cp	r16, r24
    1184:	19 07       	cpc	r17, r25
    1186:	21 f4       	brne	.+8      	; 0x1190 <queue_read_or_remove+0xc8>
    1188:	13 96       	adiw	r26, 0x03	; 3
    118a:	dc 92       	st	X, r13
    118c:	ce 92       	st	-X, r12
    118e:	12 97       	sbiw	r26, 0x02	; 2
    1190:	f5 01       	movw	r30, r10
    1192:	84 81       	ldd	r24, Z+4	; 0x04
    1194:	81 50       	subi	r24, 0x01	; 1
    1196:	84 83       	std	Z+4, r24	; 0x04
    1198:	80 81       	ld	r24, Z
    119a:	91 81       	ldd	r25, Z+1	; 0x01
    119c:	89 2b       	or	r24, r25
    119e:	41 f4       	brne	.+16     	; 0x11b0 <queue_read_or_remove+0xe8>
    11a0:	13 82       	std	Z+3, r1	; 0x03
    11a2:	12 82       	std	Z+2, r1	; 0x02
    11a4:	05 c0       	rjmp	.+10     	; 0x11b0 <queue_read_or_remove+0xe8>
    11a6:	00 e0       	ldi	r16, 0x00	; 0
    11a8:	10 e0       	ldi	r17, 0x00	; 0
    11aa:	02 c0       	rjmp	.+4      	; 0x11b0 <queue_read_or_remove+0xe8>
    11ac:	00 e0       	ldi	r16, 0x00	; 0
    11ae:	10 e0       	ldi	r17, 0x00	; 0
    11b0:	8f be       	out	0x3f, r8	; 63
    11b2:	c8 01       	movw	r24, r16
    11b4:	0f 90       	pop	r0
    11b6:	df 91       	pop	r29
    11b8:	cf 91       	pop	r28
    11ba:	1f 91       	pop	r17
    11bc:	0f 91       	pop	r16
    11be:	ff 90       	pop	r15
    11c0:	ef 90       	pop	r14
    11c2:	df 90       	pop	r13
    11c4:	cf 90       	pop	r12
    11c6:	bf 90       	pop	r11
    11c8:	af 90       	pop	r10
    11ca:	9f 90       	pop	r9
    11cc:	8f 90       	pop	r8
    11ce:	08 95       	ret

000011d0 <qmm_queue_init>:
    11d0:	fc 01       	movw	r30, r24
    11d2:	11 82       	std	Z+1, r1	; 0x01
    11d4:	10 82       	st	Z, r1
    11d6:	13 82       	std	Z+3, r1	; 0x03
    11d8:	12 82       	std	Z+2, r1	; 0x02
    11da:	14 82       	std	Z+4, r1	; 0x04
    11dc:	08 95       	ret

000011de <qmm_queue_append>:
    11de:	cf 93       	push	r28
    11e0:	df 93       	push	r29
    11e2:	1f 92       	push	r1
    11e4:	cd b7       	in	r28, 0x3d	; 61
    11e6:	de b7       	in	r29, 0x3e	; 62
    11e8:	fc 01       	movw	r30, r24
    11ea:	8f b7       	in	r24, 0x3f	; 63
    11ec:	89 83       	std	Y+1, r24	; 0x01
    11ee:	f8 94       	cli
    11f0:	99 81       	ldd	r25, Y+1	; 0x01
    11f2:	84 81       	ldd	r24, Z+4	; 0x04
    11f4:	81 11       	cpse	r24, r1
    11f6:	03 c0       	rjmp	.+6      	; 0x11fe <qmm_queue_append+0x20>
    11f8:	71 83       	std	Z+1, r23	; 0x01
    11fa:	60 83       	st	Z, r22
    11fc:	06 c0       	rjmp	.+12     	; 0x120a <qmm_queue_append+0x2c>
    11fe:	a2 81       	ldd	r26, Z+2	; 0x02
    1200:	b3 81       	ldd	r27, Z+3	; 0x03
    1202:	13 96       	adiw	r26, 0x03	; 3
    1204:	7c 93       	st	X, r23
    1206:	6e 93       	st	-X, r22
    1208:	12 97       	sbiw	r26, 0x02	; 2
    120a:	73 83       	std	Z+3, r23	; 0x03
    120c:	62 83       	std	Z+2, r22	; 0x02
    120e:	db 01       	movw	r26, r22
    1210:	13 96       	adiw	r26, 0x03	; 3
    1212:	1c 92       	st	X, r1
    1214:	1e 92       	st	-X, r1
    1216:	12 97       	sbiw	r26, 0x02	; 2
    1218:	84 81       	ldd	r24, Z+4	; 0x04
    121a:	8f 5f       	subi	r24, 0xFF	; 255
    121c:	84 83       	std	Z+4, r24	; 0x04
    121e:	9f bf       	out	0x3f, r25	; 63
    1220:	0f 90       	pop	r0
    1222:	df 91       	pop	r29
    1224:	cf 91       	pop	r28
    1226:	08 95       	ret

00001228 <qmm_queue_remove>:
    1228:	ab 01       	movw	r20, r22
    122a:	60 e0       	ldi	r22, 0x00	; 0
    122c:	4d cf       	rjmp	.-358    	; 0x10c8 <queue_read_or_remove>
    122e:	08 95       	ret

00001230 <__portable_avr_delay_cycles>:
    1230:	04 c0       	rjmp	.+8      	; 0x123a <__portable_avr_delay_cycles+0xa>
    1232:	61 50       	subi	r22, 0x01	; 1
    1234:	71 09       	sbc	r23, r1
    1236:	81 09       	sbc	r24, r1
    1238:	91 09       	sbc	r25, r1
    123a:	61 15       	cp	r22, r1
    123c:	71 05       	cpc	r23, r1
    123e:	81 05       	cpc	r24, r1
    1240:	91 05       	cpc	r25, r1
    1242:	b9 f7       	brne	.-18     	; 0x1232 <__portable_avr_delay_cycles+0x2>
    1244:	08 95       	ret

00001246 <switch_pll_on>:
    1246:	0f 93       	push	r16
    1248:	1f 93       	push	r17
    124a:	cf 93       	push	r28
    124c:	80 91 41 01 	lds	r24, 0x0141	; 0x800141 <__TEXT_REGION_LENGTH__+0x7c0141>
    1250:	8f 71       	andi	r24, 0x1F	; 31
    1252:	88 30       	cpi	r24, 0x08	; 8
    1254:	a1 f4       	brne	.+40     	; 0x127e <switch_pll_on+0x38>
    1256:	81 e0       	ldi	r24, 0x01	; 1
    1258:	80 93 4f 01 	sts	0x014F, r24	; 0x80014f <__TEXT_REGION_LENGTH__+0x7c014f>
    125c:	89 e0       	ldi	r24, 0x09	; 9
    125e:	80 93 42 01 	sts	0x0142, r24	; 0x800142 <__TEXT_REGION_LENGTH__+0x7c0142>
    1262:	c3 e0       	ldi	r28, 0x03	; 3
    1264:	0f e4       	ldi	r16, 0x4F	; 79
    1266:	11 e0       	ldi	r17, 0x01	; 1
    1268:	f8 01       	movw	r30, r16
    126a:	80 81       	ld	r24, Z
    126c:	80 fd       	sbrc	r24, 0
    126e:	07 c0       	rjmp	.+14     	; 0x127e <switch_pll_on+0x38>
    1270:	63 e9       	ldi	r22, 0x93	; 147
    1272:	70 e0       	ldi	r23, 0x00	; 0
    1274:	80 e0       	ldi	r24, 0x00	; 0
    1276:	90 e0       	ldi	r25, 0x00	; 0
    1278:	db df       	rcall	.-74     	; 0x1230 <__portable_avr_delay_cycles>
    127a:	c1 50       	subi	r28, 0x01	; 1
    127c:	a9 f7       	brne	.-22     	; 0x1268 <switch_pll_on+0x22>
    127e:	cf 91       	pop	r28
    1280:	1f 91       	pop	r17
    1282:	0f 91       	pop	r16
    1284:	08 95       	ret

00001286 <set_trx_state>:
    1286:	1f 93       	push	r17
    1288:	cf 93       	push	r28
    128a:	df 93       	push	r29
    128c:	1f 92       	push	r1
    128e:	cd b7       	in	r28, 0x3d	; 61
    1290:	de b7       	in	r29, 0x3e	; 62
    1292:	18 2f       	mov	r17, r24
    1294:	80 91 a7 54 	lds	r24, 0x54A7	; 0x8054a7 <tal_trx_status>
    1298:	8f 30       	cpi	r24, 0x0F	; 15
    129a:	51 f5       	brne	.+84     	; 0x12f0 <set_trx_state+0x6a>
    129c:	1f 30       	cpi	r17, 0x0F	; 15
    129e:	09 f4       	brne	.+2      	; 0x12a2 <set_trx_state+0x1c>
    12a0:	38 c1       	rjmp	.+624    	; 0x1512 <set_trx_state+0x28c>
    12a2:	10 92 ab 54 	sts	0x54AB, r1	; 0x8054ab <tal_awake_end_flag>
    12a6:	88 e7       	ldi	r24, 0x78	; 120
    12a8:	9d e0       	ldi	r25, 0x0D	; 13
    12aa:	e1 d2       	rcall	.+1474   	; 0x186e <pal_trx_irq_init_awake>
    12ac:	8f b7       	in	r24, 0x3f	; 63
    12ae:	89 83       	std	Y+1, r24	; 0x01
    12b0:	f8 94       	cli
    12b2:	99 81       	ldd	r25, Y+1	; 0x01
    12b4:	78 94       	sei
    12b6:	e9 e3       	ldi	r30, 0x39	; 57
    12b8:	f1 e0       	ldi	r31, 0x01	; 1
    12ba:	80 81       	ld	r24, Z
    12bc:	8d 7f       	andi	r24, 0xFD	; 253
    12be:	80 83       	st	Z, r24
    12c0:	80 91 ab 54 	lds	r24, 0x54AB	; 0x8054ab <tal_awake_end_flag>
    12c4:	88 23       	and	r24, r24
    12c6:	e1 f3       	breq	.-8      	; 0x12c0 <set_trx_state+0x3a>
    12c8:	9f bf       	out	0x3f, r25	; 63
    12ca:	8f ef       	ldi	r24, 0xFF	; 255
    12cc:	80 93 4f 01 	sts	0x014F, r24	; 0x80014f <__TEXT_REGION_LENGTH__+0x7c014f>
    12d0:	88 e4       	ldi	r24, 0x48	; 72
    12d2:	80 93 4e 01 	sts	0x014E, r24	; 0x80014e <__TEXT_REGION_LENGTH__+0x7c014e>
    12d6:	ed e4       	ldi	r30, 0x4D	; 77
    12d8:	f1 e0       	ldi	r31, 0x01	; 1
    12da:	80 81       	ld	r24, Z
    12dc:	84 60       	ori	r24, 0x04	; 4
    12de:	80 83       	st	Z, r24
    12e0:	18 30       	cpi	r17, 0x08	; 8
    12e2:	11 f0       	breq	.+4      	; 0x12e8 <set_trx_state+0x62>
    12e4:	13 30       	cpi	r17, 0x03	; 3
    12e6:	21 f4       	brne	.+8      	; 0x12f0 <set_trx_state+0x6a>
    12e8:	88 e0       	ldi	r24, 0x08	; 8
    12ea:	80 93 a7 54 	sts	0x54A7, r24	; 0x8054a7 <tal_trx_status>
    12ee:	11 c1       	rjmp	.+546    	; 0x1512 <set_trx_state+0x28c>
    12f0:	81 2f       	mov	r24, r17
    12f2:	90 e0       	ldi	r25, 0x00	; 0
    12f4:	fc 01       	movw	r30, r24
    12f6:	33 97       	sbiw	r30, 0x03	; 3
    12f8:	e7 31       	cpi	r30, 0x17	; 23
    12fa:	f1 05       	cpc	r31, r1
    12fc:	08 f0       	brcs	.+2      	; 0x1300 <set_trx_state+0x7a>
    12fe:	5a c0       	rjmp	.+180    	; 0x13b4 <set_trx_state+0x12e>
    1300:	88 27       	eor	r24, r24
    1302:	e6 56       	subi	r30, 0x66	; 102
    1304:	ff 4f       	sbci	r31, 0xFF	; 255
    1306:	8f 4f       	sbci	r24, 0xFF	; 255
    1308:	0c 94 b5 16 	jmp	0x2d6a	; 0x2d6a <__tablejump2__>
    130c:	83 e0       	ldi	r24, 0x03	; 3
    130e:	80 93 42 01 	sts	0x0142, r24	; 0x800142 <__TEXT_REGION_LENGTH__+0x7c0142>
    1312:	ed e4       	ldi	r30, 0x4D	; 77
    1314:	f1 e0       	ldi	r31, 0x01	; 1
    1316:	80 81       	ld	r24, Z
    1318:	8b 7f       	andi	r24, 0xFB	; 251
    131a:	80 83       	st	Z, r24
    131c:	0e 94 35 17 	call	0x2e6a	; 0x2e6a <rand>
    1320:	80 93 6d 01 	sts	0x016D, r24	; 0x80016d <__TEXT_REGION_LENGTH__+0x7c016d>
    1324:	ee e6       	ldi	r30, 0x6E	; 110
    1326:	f1 e0       	ldi	r31, 0x01	; 1
    1328:	80 81       	ld	r24, Z
    132a:	97 70       	andi	r25, 0x07	; 7
    132c:	88 7f       	andi	r24, 0xF8	; 248
    132e:	89 2b       	or	r24, r25
    1330:	80 83       	st	Z, r24
    1332:	8f ef       	ldi	r24, 0xFF	; 255
    1334:	80 93 4f 01 	sts	0x014F, r24	; 0x80014f <__TEXT_REGION_LENGTH__+0x7c014f>
    1338:	80 e8       	ldi	r24, 0x80	; 128
    133a:	80 93 4e 01 	sts	0x014E, r24	; 0x80014e <__TEXT_REGION_LENGTH__+0x7c014e>
    133e:	62 e0       	ldi	r22, 0x02	; 2
    1340:	70 e0       	ldi	r23, 0x00	; 0
    1342:	80 e0       	ldi	r24, 0x00	; 0
    1344:	90 e0       	ldi	r25, 0x00	; 0
    1346:	74 df       	rcall	.-280    	; 0x1230 <__portable_avr_delay_cycles>
    1348:	e9 e3       	ldi	r30, 0x39	; 57
    134a:	f1 e0       	ldi	r31, 0x01	; 1
    134c:	80 81       	ld	r24, Z
    134e:	82 60       	ori	r24, 0x02	; 2
    1350:	80 83       	st	Z, r24
    1352:	6f e2       	ldi	r22, 0x2F	; 47
    1354:	70 e0       	ldi	r23, 0x00	; 0
    1356:	80 e0       	ldi	r24, 0x00	; 0
    1358:	90 e0       	ldi	r25, 0x00	; 0
    135a:	6a df       	rcall	.-300    	; 0x1230 <__portable_avr_delay_cycles>
    135c:	8f e0       	ldi	r24, 0x0F	; 15
    135e:	80 93 a7 54 	sts	0x54A7, r24	; 0x8054a7 <tal_trx_status>
    1362:	d7 c0       	rjmp	.+430    	; 0x1512 <set_trx_state+0x28c>
    1364:	80 91 a7 54 	lds	r24, 0x54A7	; 0x8054a7 <tal_trx_status>
    1368:	88 30       	cpi	r24, 0x08	; 8
    136a:	21 f1       	breq	.+72     	; 0x13b4 <set_trx_state+0x12e>
    136c:	88 e0       	ldi	r24, 0x08	; 8
    136e:	80 93 42 01 	sts	0x0142, r24	; 0x800142 <__TEXT_REGION_LENGTH__+0x7c0142>
    1372:	62 e0       	ldi	r22, 0x02	; 2
    1374:	70 e0       	ldi	r23, 0x00	; 0
    1376:	80 e0       	ldi	r24, 0x00	; 0
    1378:	90 e0       	ldi	r25, 0x00	; 0
    137a:	5a df       	rcall	.-332    	; 0x1230 <__portable_avr_delay_cycles>
    137c:	1b c0       	rjmp	.+54     	; 0x13b4 <set_trx_state+0x12e>
    137e:	80 91 a7 54 	lds	r24, 0x54A7	; 0x8054a7 <tal_trx_status>
    1382:	88 30       	cpi	r24, 0x08	; 8
    1384:	b9 f0       	breq	.+46     	; 0x13b4 <set_trx_state+0x12e>
    1386:	83 e0       	ldi	r24, 0x03	; 3
    1388:	80 93 42 01 	sts	0x0142, r24	; 0x800142 <__TEXT_REGION_LENGTH__+0x7c0142>
    138c:	62 e0       	ldi	r22, 0x02	; 2
    138e:	70 e0       	ldi	r23, 0x00	; 0
    1390:	80 e0       	ldi	r24, 0x00	; 0
    1392:	90 e0       	ldi	r25, 0x00	; 0
    1394:	4d df       	rcall	.-358    	; 0x1230 <__portable_avr_delay_cycles>
    1396:	0e c0       	rjmp	.+28     	; 0x13b4 <set_trx_state+0x12e>
    1398:	80 91 a7 54 	lds	r24, 0x54A7	; 0x8054a7 <tal_trx_status>
    139c:	88 30       	cpi	r24, 0x08	; 8
    139e:	49 f0       	breq	.+18     	; 0x13b2 <set_trx_state+0x12c>
    13a0:	18 f4       	brcc	.+6      	; 0x13a8 <set_trx_state+0x122>
    13a2:	86 30       	cpi	r24, 0x06	; 6
    13a4:	39 f4       	brne	.+14     	; 0x13b4 <set_trx_state+0x12e>
    13a6:	09 c0       	rjmp	.+18     	; 0x13ba <set_trx_state+0x134>
    13a8:	86 31       	cpi	r24, 0x16	; 22
    13aa:	39 f0       	breq	.+14     	; 0x13ba <set_trx_state+0x134>
    13ac:	89 31       	cpi	r24, 0x19	; 25
    13ae:	11 f4       	brne	.+4      	; 0x13b4 <set_trx_state+0x12e>
    13b0:	04 c0       	rjmp	.+8      	; 0x13ba <set_trx_state+0x134>
    13b2:	49 df       	rcall	.-366    	; 0x1246 <switch_pll_on>
    13b4:	e1 e4       	ldi	r30, 0x41	; 65
    13b6:	f1 e0       	ldi	r31, 0x01	; 1
    13b8:	a6 c0       	rjmp	.+332    	; 0x1506 <set_trx_state+0x280>
    13ba:	89 e0       	ldi	r24, 0x09	; 9
    13bc:	80 93 42 01 	sts	0x0142, r24	; 0x800142 <__TEXT_REGION_LENGTH__+0x7c0142>
    13c0:	62 e0       	ldi	r22, 0x02	; 2
    13c2:	70 e0       	ldi	r23, 0x00	; 0
    13c4:	80 e0       	ldi	r24, 0x00	; 0
    13c6:	90 e0       	ldi	r25, 0x00	; 0
    13c8:	33 df       	rcall	.-410    	; 0x1230 <__portable_avr_delay_cycles>
    13ca:	f4 cf       	rjmp	.-24     	; 0x13b4 <set_trx_state+0x12e>
    13cc:	80 91 a7 54 	lds	r24, 0x54A7	; 0x8054a7 <tal_trx_status>
    13d0:	88 30       	cpi	r24, 0x08	; 8
    13d2:	19 f0       	breq	.+6      	; 0x13da <set_trx_state+0x154>
    13d4:	89 30       	cpi	r24, 0x09	; 9
    13d6:	71 f3       	breq	.-36     	; 0x13b4 <set_trx_state+0x12e>
    13d8:	02 c0       	rjmp	.+4      	; 0x13de <set_trx_state+0x158>
    13da:	35 df       	rcall	.-406    	; 0x1246 <switch_pll_on>
    13dc:	eb cf       	rjmp	.-42     	; 0x13b4 <set_trx_state+0x12e>
    13de:	84 e0       	ldi	r24, 0x04	; 4
    13e0:	80 93 42 01 	sts	0x0142, r24	; 0x800142 <__TEXT_REGION_LENGTH__+0x7c0142>
    13e4:	e7 cf       	rjmp	.-50     	; 0x13b4 <set_trx_state+0x12e>
    13e6:	80 91 a7 54 	lds	r24, 0x54A7	; 0x8054a7 <tal_trx_status>
    13ea:	89 30       	cpi	r24, 0x09	; 9
    13ec:	41 f0       	breq	.+16     	; 0x13fe <set_trx_state+0x178>
    13ee:	18 f4       	brcc	.+6      	; 0x13f6 <set_trx_state+0x170>
    13f0:	88 30       	cpi	r24, 0x08	; 8
    13f2:	71 f0       	breq	.+28     	; 0x1410 <set_trx_state+0x18a>
    13f4:	df cf       	rjmp	.-66     	; 0x13b4 <set_trx_state+0x12e>
    13f6:	86 31       	cpi	r24, 0x16	; 22
    13f8:	11 f0       	breq	.+4      	; 0x13fe <set_trx_state+0x178>
    13fa:	89 31       	cpi	r24, 0x19	; 25
    13fc:	d9 f6       	brne	.-74     	; 0x13b4 <set_trx_state+0x12e>
    13fe:	86 e0       	ldi	r24, 0x06	; 6
    1400:	80 93 42 01 	sts	0x0142, r24	; 0x800142 <__TEXT_REGION_LENGTH__+0x7c0142>
    1404:	62 e0       	ldi	r22, 0x02	; 2
    1406:	70 e0       	ldi	r23, 0x00	; 0
    1408:	80 e0       	ldi	r24, 0x00	; 0
    140a:	90 e0       	ldi	r25, 0x00	; 0
    140c:	11 df       	rcall	.-478    	; 0x1230 <__portable_avr_delay_cycles>
    140e:	d2 cf       	rjmp	.-92     	; 0x13b4 <set_trx_state+0x12e>
    1410:	1a df       	rcall	.-460    	; 0x1246 <switch_pll_on>
    1412:	86 e0       	ldi	r24, 0x06	; 6
    1414:	80 93 42 01 	sts	0x0142, r24	; 0x800142 <__TEXT_REGION_LENGTH__+0x7c0142>
    1418:	62 e0       	ldi	r22, 0x02	; 2
    141a:	70 e0       	ldi	r23, 0x00	; 0
    141c:	80 e0       	ldi	r24, 0x00	; 0
    141e:	90 e0       	ldi	r25, 0x00	; 0
    1420:	07 df       	rcall	.-498    	; 0x1230 <__portable_avr_delay_cycles>
    1422:	c8 cf       	rjmp	.-112    	; 0x13b4 <set_trx_state+0x12e>
    1424:	80 91 a7 54 	lds	r24, 0x54A7	; 0x8054a7 <tal_trx_status>
    1428:	88 30       	cpi	r24, 0x08	; 8
    142a:	91 f0       	breq	.+36     	; 0x1450 <set_trx_state+0x1ca>
    142c:	18 f4       	brcc	.+6      	; 0x1434 <set_trx_state+0x1ae>
    142e:	86 30       	cpi	r24, 0x06	; 6
    1430:	c9 f0       	breq	.+50     	; 0x1464 <set_trx_state+0x1de>
    1432:	c0 cf       	rjmp	.-128    	; 0x13b4 <set_trx_state+0x12e>
    1434:	89 30       	cpi	r24, 0x09	; 9
    1436:	19 f0       	breq	.+6      	; 0x143e <set_trx_state+0x1b8>
    1438:	89 31       	cpi	r24, 0x19	; 25
    143a:	09 f0       	breq	.+2      	; 0x143e <set_trx_state+0x1b8>
    143c:	bb cf       	rjmp	.-138    	; 0x13b4 <set_trx_state+0x12e>
    143e:	86 e1       	ldi	r24, 0x16	; 22
    1440:	80 93 42 01 	sts	0x0142, r24	; 0x800142 <__TEXT_REGION_LENGTH__+0x7c0142>
    1444:	62 e0       	ldi	r22, 0x02	; 2
    1446:	70 e0       	ldi	r23, 0x00	; 0
    1448:	80 e0       	ldi	r24, 0x00	; 0
    144a:	90 e0       	ldi	r25, 0x00	; 0
    144c:	f1 de       	rcall	.-542    	; 0x1230 <__portable_avr_delay_cycles>
    144e:	b2 cf       	rjmp	.-156    	; 0x13b4 <set_trx_state+0x12e>
    1450:	fa de       	rcall	.-524    	; 0x1246 <switch_pll_on>
    1452:	86 e1       	ldi	r24, 0x16	; 22
    1454:	80 93 42 01 	sts	0x0142, r24	; 0x800142 <__TEXT_REGION_LENGTH__+0x7c0142>
    1458:	62 e0       	ldi	r22, 0x02	; 2
    145a:	70 e0       	ldi	r23, 0x00	; 0
    145c:	80 e0       	ldi	r24, 0x00	; 0
    145e:	90 e0       	ldi	r25, 0x00	; 0
    1460:	e7 de       	rcall	.-562    	; 0x1230 <__portable_avr_delay_cycles>
    1462:	a8 cf       	rjmp	.-176    	; 0x13b4 <set_trx_state+0x12e>
    1464:	89 e0       	ldi	r24, 0x09	; 9
    1466:	80 93 42 01 	sts	0x0142, r24	; 0x800142 <__TEXT_REGION_LENGTH__+0x7c0142>
    146a:	62 e0       	ldi	r22, 0x02	; 2
    146c:	70 e0       	ldi	r23, 0x00	; 0
    146e:	80 e0       	ldi	r24, 0x00	; 0
    1470:	90 e0       	ldi	r25, 0x00	; 0
    1472:	de de       	rcall	.-580    	; 0x1230 <__portable_avr_delay_cycles>
    1474:	80 91 41 01 	lds	r24, 0x0141	; 0x800141 <__TEXT_REGION_LENGTH__+0x7c0141>
    1478:	8f 71       	andi	r24, 0x1F	; 31
    147a:	80 93 a7 54 	sts	0x54A7, r24	; 0x8054a7 <tal_trx_status>
    147e:	89 30       	cpi	r24, 0x09	; 9
    1480:	09 f0       	breq	.+2      	; 0x1484 <set_trx_state+0x1fe>
    1482:	47 c0       	rjmp	.+142    	; 0x1512 <set_trx_state+0x28c>
    1484:	86 e1       	ldi	r24, 0x16	; 22
    1486:	80 93 42 01 	sts	0x0142, r24	; 0x800142 <__TEXT_REGION_LENGTH__+0x7c0142>
    148a:	62 e0       	ldi	r22, 0x02	; 2
    148c:	70 e0       	ldi	r23, 0x00	; 0
    148e:	80 e0       	ldi	r24, 0x00	; 0
    1490:	90 e0       	ldi	r25, 0x00	; 0
    1492:	ce de       	rcall	.-612    	; 0x1230 <__portable_avr_delay_cycles>
    1494:	8f cf       	rjmp	.-226    	; 0x13b4 <set_trx_state+0x12e>
    1496:	80 91 a7 54 	lds	r24, 0x54A7	; 0x8054a7 <tal_trx_status>
    149a:	88 30       	cpi	r24, 0x08	; 8
    149c:	51 f1       	breq	.+84     	; 0x14f2 <set_trx_state+0x26c>
    149e:	18 f4       	brcc	.+6      	; 0x14a6 <set_trx_state+0x220>
    14a0:	86 30       	cpi	r24, 0x06	; 6
    14a2:	79 f0       	breq	.+30     	; 0x14c2 <set_trx_state+0x23c>
    14a4:	87 cf       	rjmp	.-242    	; 0x13b4 <set_trx_state+0x12e>
    14a6:	89 30       	cpi	r24, 0x09	; 9
    14a8:	19 f0       	breq	.+6      	; 0x14b0 <set_trx_state+0x22a>
    14aa:	86 31       	cpi	r24, 0x16	; 22
    14ac:	51 f0       	breq	.+20     	; 0x14c2 <set_trx_state+0x23c>
    14ae:	82 cf       	rjmp	.-252    	; 0x13b4 <set_trx_state+0x12e>
    14b0:	89 e1       	ldi	r24, 0x19	; 25
    14b2:	80 93 42 01 	sts	0x0142, r24	; 0x800142 <__TEXT_REGION_LENGTH__+0x7c0142>
    14b6:	62 e0       	ldi	r22, 0x02	; 2
    14b8:	70 e0       	ldi	r23, 0x00	; 0
    14ba:	80 e0       	ldi	r24, 0x00	; 0
    14bc:	90 e0       	ldi	r25, 0x00	; 0
    14be:	b8 de       	rcall	.-656    	; 0x1230 <__portable_avr_delay_cycles>
    14c0:	79 cf       	rjmp	.-270    	; 0x13b4 <set_trx_state+0x12e>
    14c2:	89 e0       	ldi	r24, 0x09	; 9
    14c4:	80 93 42 01 	sts	0x0142, r24	; 0x800142 <__TEXT_REGION_LENGTH__+0x7c0142>
    14c8:	62 e0       	ldi	r22, 0x02	; 2
    14ca:	70 e0       	ldi	r23, 0x00	; 0
    14cc:	80 e0       	ldi	r24, 0x00	; 0
    14ce:	90 e0       	ldi	r25, 0x00	; 0
    14d0:	af de       	rcall	.-674    	; 0x1230 <__portable_avr_delay_cycles>
    14d2:	80 91 41 01 	lds	r24, 0x0141	; 0x800141 <__TEXT_REGION_LENGTH__+0x7c0141>
    14d6:	8f 71       	andi	r24, 0x1F	; 31
    14d8:	80 93 a7 54 	sts	0x54A7, r24	; 0x8054a7 <tal_trx_status>
    14dc:	89 30       	cpi	r24, 0x09	; 9
    14de:	c9 f4       	brne	.+50     	; 0x1512 <set_trx_state+0x28c>
    14e0:	89 e1       	ldi	r24, 0x19	; 25
    14e2:	80 93 42 01 	sts	0x0142, r24	; 0x800142 <__TEXT_REGION_LENGTH__+0x7c0142>
    14e6:	62 e0       	ldi	r22, 0x02	; 2
    14e8:	70 e0       	ldi	r23, 0x00	; 0
    14ea:	80 e0       	ldi	r24, 0x00	; 0
    14ec:	90 e0       	ldi	r25, 0x00	; 0
    14ee:	a0 de       	rcall	.-704    	; 0x1230 <__portable_avr_delay_cycles>
    14f0:	61 cf       	rjmp	.-318    	; 0x13b4 <set_trx_state+0x12e>
    14f2:	a9 de       	rcall	.-686    	; 0x1246 <switch_pll_on>
    14f4:	89 e1       	ldi	r24, 0x19	; 25
    14f6:	80 93 42 01 	sts	0x0142, r24	; 0x800142 <__TEXT_REGION_LENGTH__+0x7c0142>
    14fa:	62 e0       	ldi	r22, 0x02	; 2
    14fc:	70 e0       	ldi	r23, 0x00	; 0
    14fe:	80 e0       	ldi	r24, 0x00	; 0
    1500:	90 e0       	ldi	r25, 0x00	; 0
    1502:	96 de       	rcall	.-724    	; 0x1230 <__portable_avr_delay_cycles>
    1504:	57 cf       	rjmp	.-338    	; 0x13b4 <set_trx_state+0x12e>
    1506:	80 81       	ld	r24, Z
    1508:	8f 71       	andi	r24, 0x1F	; 31
    150a:	80 93 a7 54 	sts	0x54A7, r24	; 0x8054a7 <tal_trx_status>
    150e:	8f 31       	cpi	r24, 0x1F	; 31
    1510:	d1 f3       	breq	.-12     	; 0x1506 <set_trx_state+0x280>
    1512:	0f 90       	pop	r0
    1514:	df 91       	pop	r29
    1516:	cf 91       	pop	r28
    1518:	1f 91       	pop	r17
    151a:	08 95       	ret

0000151c <tal_task>:
    151c:	cf 93       	push	r28
    151e:	df 93       	push	r29
    1520:	80 91 80 54 	lds	r24, 0x5480	; 0x805480 <tal_rx_on_required>
    1524:	88 23       	and	r24, r24
    1526:	19 f1       	breq	.+70     	; 0x156e <tal_task+0x52>
    1528:	80 91 ac 54 	lds	r24, 0x54AC	; 0x8054ac <tal_state>
    152c:	81 11       	cpse	r24, r1
    152e:	1f c0       	rjmp	.+62     	; 0x156e <tal_task+0x52>
    1530:	80 91 7f 05 	lds	r24, 0x057F	; 0x80057f <tal_rx_buffer>
    1534:	90 91 80 05 	lds	r25, 0x0580	; 0x800580 <tal_rx_buffer+0x1>
    1538:	89 2b       	or	r24, r25
    153a:	41 f4       	brne	.+16     	; 0x154c <tal_task+0x30>
    153c:	8b e8       	ldi	r24, 0x8B	; 139
    153e:	b7 dd       	rcall	.-1170   	; 0x10ae <bmm_buffer_alloc>
    1540:	90 93 80 05 	sts	0x0580, r25	; 0x800580 <tal_rx_buffer+0x1>
    1544:	80 93 7f 05 	sts	0x057F, r24	; 0x80057f <tal_rx_buffer>
    1548:	89 2b       	or	r24, r25
    154a:	89 f0       	breq	.+34     	; 0x156e <tal_task+0x52>
    154c:	10 92 80 54 	sts	0x5480, r1	; 0x805480 <tal_rx_on_required>
    1550:	cc e4       	ldi	r28, 0x4C	; 76
    1552:	d1 e0       	ldi	r29, 0x01	; 1
    1554:	88 81       	ld	r24, Y
    1556:	8f 77       	andi	r24, 0x7F	; 127
    1558:	88 83       	st	Y, r24
    155a:	63 e0       	ldi	r22, 0x03	; 3
    155c:	70 e0       	ldi	r23, 0x00	; 0
    155e:	80 e0       	ldi	r24, 0x00	; 0
    1560:	90 e0       	ldi	r25, 0x00	; 0
    1562:	66 de       	rcall	.-820    	; 0x1230 <__portable_avr_delay_cycles>
    1564:	88 81       	ld	r24, Y
    1566:	80 68       	ori	r24, 0x80	; 128
    1568:	88 83       	st	Y, r24
    156a:	86 e1       	ldi	r24, 0x16	; 22
    156c:	8c de       	rcall	.-744    	; 0x1286 <set_trx_state>
    156e:	80 91 85 54 	lds	r24, 0x5485	; 0x805485 <tal_incoming_frame_queue+0x4>
    1572:	88 23       	and	r24, r24
    1574:	41 f0       	breq	.+16     	; 0x1586 <tal_task+0x6a>
    1576:	60 e0       	ldi	r22, 0x00	; 0
    1578:	70 e0       	ldi	r23, 0x00	; 0
    157a:	81 e8       	ldi	r24, 0x81	; 129
    157c:	94 e5       	ldi	r25, 0x54	; 84
    157e:	54 de       	rcall	.-856    	; 0x1228 <qmm_queue_remove>
    1580:	00 97       	sbiw	r24, 0x00	; 0
    1582:	09 f0       	breq	.+2      	; 0x1586 <tal_task+0x6a>
    1584:	24 d5       	rcall	.+2632   	; 0x1fce <process_incoming_frame>
    1586:	80 91 ac 54 	lds	r24, 0x54AC	; 0x8054ac <tal_state>
    158a:	82 30       	cpi	r24, 0x02	; 2
    158c:	09 f4       	brne	.+2      	; 0x1590 <tal_task+0x74>
    158e:	85 d5       	rcall	.+2826   	; 0x209a <tx_done_handling>
    1590:	df 91       	pop	r29
    1592:	cf 91       	pop	r28
    1594:	08 95       	ret

00001596 <__portable_avr_delay_cycles>:
    1596:	04 c0       	rjmp	.+8      	; 0x15a0 <__portable_avr_delay_cycles+0xa>
    1598:	61 50       	subi	r22, 0x01	; 1
    159a:	71 09       	sbc	r23, r1
    159c:	81 09       	sbc	r24, r1
    159e:	91 09       	sbc	r25, r1
    15a0:	61 15       	cp	r22, r1
    15a2:	71 05       	cpc	r23, r1
    15a4:	81 05       	cpc	r24, r1
    15a6:	91 05       	cpc	r25, r1
    15a8:	b9 f7       	brne	.-18     	; 0x1598 <__portable_avr_delay_cycles+0x2>
    15aa:	08 95       	ret

000015ac <tal_generate_rand_seed>:
    15ac:	ff 92       	push	r15
    15ae:	0f 93       	push	r16
    15b0:	1f 93       	push	r17
    15b2:	cf 93       	push	r28
    15b4:	df 93       	push	r29
    15b6:	86 e0       	ldi	r24, 0x06	; 6
    15b8:	66 de       	rcall	.-820    	; 0x1286 <set_trx_state>
    15ba:	86 30       	cpi	r24, 0x06	; 6
    15bc:	e1 f7       	brne	.-8      	; 0x15b6 <tal_generate_rand_seed+0xa>
    15be:	e5 e5       	ldi	r30, 0x55	; 85
    15c0:	f1 e0       	ldi	r31, 0x01	; 1
    15c2:	80 81       	ld	r24, Z
    15c4:	8f 77       	andi	r24, 0x7F	; 127
    15c6:	80 83       	st	Z, r24
    15c8:	10 92 4e 01 	sts	0x014E, r1	; 0x80014e <__TEXT_REGION_LENGTH__+0x7c014e>
    15cc:	68 94       	set
    15ce:	ff 24       	eor	r15, r15
    15d0:	f3 f8       	bld	r15, 3
    15d2:	c0 e0       	ldi	r28, 0x00	; 0
    15d4:	d0 e0       	ldi	r29, 0x00	; 0
    15d6:	06 e4       	ldi	r16, 0x46	; 70
    15d8:	11 e0       	ldi	r17, 0x01	; 1
    15da:	f8 01       	movw	r30, r16
    15dc:	90 81       	ld	r25, Z
    15de:	cc 0f       	add	r28, r28
    15e0:	dd 1f       	adc	r29, r29
    15e2:	cc 0f       	add	r28, r28
    15e4:	dd 1f       	adc	r29, r29
    15e6:	90 76       	andi	r25, 0x60	; 96
    15e8:	29 2f       	mov	r18, r25
    15ea:	30 e0       	ldi	r19, 0x00	; 0
    15ec:	36 95       	lsr	r19
    15ee:	27 95       	ror	r18
    15f0:	32 95       	swap	r19
    15f2:	22 95       	swap	r18
    15f4:	2f 70       	andi	r18, 0x0F	; 15
    15f6:	23 27       	eor	r18, r19
    15f8:	3f 70       	andi	r19, 0x0F	; 15
    15fa:	23 27       	eor	r18, r19
    15fc:	c2 2b       	or	r28, r18
    15fe:	d3 2b       	or	r29, r19
    1600:	62 e0       	ldi	r22, 0x02	; 2
    1602:	70 e0       	ldi	r23, 0x00	; 0
    1604:	80 e0       	ldi	r24, 0x00	; 0
    1606:	90 e0       	ldi	r25, 0x00	; 0
    1608:	c6 df       	rcall	.-116    	; 0x1596 <__portable_avr_delay_cycles>
    160a:	fa 94       	dec	r15
    160c:	f1 10       	cpse	r15, r1
    160e:	e5 cf       	rjmp	.-54     	; 0x15da <tal_generate_rand_seed+0x2e>
    1610:	83 e0       	ldi	r24, 0x03	; 3
    1612:	39 de       	rcall	.-910    	; 0x1286 <set_trx_state>
    1614:	8f ef       	ldi	r24, 0xFF	; 255
    1616:	80 93 4f 01 	sts	0x014F, r24	; 0x80014f <__TEXT_REGION_LENGTH__+0x7c014f>
    161a:	88 e4       	ldi	r24, 0x48	; 72
    161c:	80 93 4e 01 	sts	0x014E, r24	; 0x80014e <__TEXT_REGION_LENGTH__+0x7c014e>
    1620:	ce 01       	movw	r24, r28
    1622:	0e 94 38 17 	call	0x2e70	; 0x2e70 <srand>
    1626:	df 91       	pop	r29
    1628:	cf 91       	pop	r28
    162a:	1f 91       	pop	r17
    162c:	0f 91       	pop	r16
    162e:	ff 90       	pop	r15
    1630:	08 95       	ret

00001632 <internal_tal_reset>:
    1632:	ff 92       	push	r15
    1634:	0f 93       	push	r16
    1636:	1f 93       	push	r17
    1638:	cf 93       	push	r28
    163a:	df 93       	push	r29
    163c:	f8 2e       	mov	r15, r24
    163e:	c9 e3       	ldi	r28, 0x39	; 57
    1640:	d1 e0       	ldi	r29, 0x01	; 1
    1642:	88 81       	ld	r24, Y
    1644:	8d 7f       	andi	r24, 0xFD	; 253
    1646:	88 83       	st	Y, r24
    1648:	61 e4       	ldi	r22, 0x41	; 65
    164a:	71 e0       	ldi	r23, 0x01	; 1
    164c:	80 e0       	ldi	r24, 0x00	; 0
    164e:	90 e0       	ldi	r25, 0x00	; 0
    1650:	a2 df       	rcall	.-188    	; 0x1596 <__portable_avr_delay_cycles>
    1652:	88 81       	ld	r24, Y
    1654:	8e 7f       	andi	r24, 0xFE	; 254
    1656:	88 83       	st	Y, r24
    1658:	62 e0       	ldi	r22, 0x02	; 2
    165a:	70 e0       	ldi	r23, 0x00	; 0
    165c:	80 e0       	ldi	r24, 0x00	; 0
    165e:	90 e0       	ldi	r25, 0x00	; 0
    1660:	9a df       	rcall	.-204    	; 0x1596 <__portable_avr_delay_cycles>
    1662:	88 81       	ld	r24, Y
    1664:	81 60       	ori	r24, 0x01	; 1
    1666:	88 83       	st	Y, r24
    1668:	66 e8       	ldi	r22, 0x86	; 134
    166a:	70 e0       	ldi	r23, 0x00	; 0
    166c:	80 e0       	ldi	r24, 0x00	; 0
    166e:	90 e0       	ldi	r25, 0x00	; 0
    1670:	92 df       	rcall	.-220    	; 0x1596 <__portable_avr_delay_cycles>
    1672:	80 91 41 01 	lds	r24, 0x0141	; 0x800141 <__TEXT_REGION_LENGTH__+0x7c0141>
    1676:	8f 71       	andi	r24, 0x1F	; 31
    1678:	ca e0       	ldi	r28, 0x0A	; 10
    167a:	01 e4       	ldi	r16, 0x41	; 65
    167c:	11 e0       	ldi	r17, 0x01	; 1
    167e:	0a c0       	rjmp	.+20     	; 0x1694 <internal_tal_reset+0x62>
    1680:	66 e8       	ldi	r22, 0x86	; 134
    1682:	70 e0       	ldi	r23, 0x00	; 0
    1684:	80 e0       	ldi	r24, 0x00	; 0
    1686:	90 e0       	ldi	r25, 0x00	; 0
    1688:	86 df       	rcall	.-244    	; 0x1596 <__portable_avr_delay_cycles>
    168a:	f8 01       	movw	r30, r16
    168c:	80 81       	ld	r24, Z
    168e:	8f 71       	andi	r24, 0x1F	; 31
    1690:	c1 50       	subi	r28, 0x01	; 1
    1692:	c9 f1       	breq	.+114    	; 0x1706 <internal_tal_reset+0xd4>
    1694:	88 30       	cpi	r24, 0x08	; 8
    1696:	a1 f7       	brne	.-24     	; 0x1680 <internal_tal_reset+0x4e>
    1698:	80 93 a7 54 	sts	0x54A7, r24	; 0x8054a7 <tal_trx_status>
    169c:	87 df       	rcall	.-242    	; 0x15ac <tal_generate_rand_seed>
    169e:	0e 94 35 17 	call	0x2e6a	; 0x2e6a <rand>
    16a2:	80 93 6d 01 	sts	0x016D, r24	; 0x80016d <__TEXT_REGION_LENGTH__+0x7c016d>
    16a6:	ee e6       	ldi	r30, 0x6E	; 110
    16a8:	f1 e0       	ldi	r31, 0x01	; 1
    16aa:	80 81       	ld	r24, Z
    16ac:	97 70       	andi	r25, 0x07	; 7
    16ae:	88 7f       	andi	r24, 0xF8	; 248
    16b0:	89 2b       	or	r24, r25
    16b2:	80 83       	st	Z, r24
    16b4:	80 81       	ld	r24, Z
    16b6:	80 62       	ori	r24, 0x20	; 32
    16b8:	80 83       	st	Z, r24
    16ba:	ec e4       	ldi	r30, 0x4C	; 76
    16bc:	f1 e0       	ldi	r31, 0x01	; 1
    16be:	80 81       	ld	r24, Z
    16c0:	80 68       	ori	r24, 0x80	; 128
    16c2:	80 83       	st	Z, r24
    16c4:	88 e4       	ldi	r24, 0x48	; 72
    16c6:	80 93 4e 01 	sts	0x014E, r24	; 0x80014e <__TEXT_REGION_LENGTH__+0x7c014e>
    16ca:	8f ef       	ldi	r24, 0xFF	; 255
    16cc:	80 93 56 01 	sts	0x0156, r24	; 0x800156 <__TEXT_REGION_LENGTH__+0x7c0156>
    16d0:	ed e4       	ldi	r30, 0x4D	; 77
    16d2:	f1 e0       	ldi	r31, 0x01	; 1
    16d4:	80 81       	ld	r24, Z
    16d6:	8c 7f       	andi	r24, 0xFC	; 252
    16d8:	82 60       	ori	r24, 0x02	; 2
    16da:	80 83       	st	Z, r24
    16dc:	aa e4       	ldi	r26, 0x4A	; 74
    16de:	b1 e0       	ldi	r27, 0x01	; 1
    16e0:	8c 91       	ld	r24, X
    16e2:	80 7f       	andi	r24, 0xF0	; 240
    16e4:	83 60       	ori	r24, 0x03	; 3
    16e6:	8c 93       	st	X, r24
    16e8:	80 81       	ld	r24, Z
    16ea:	88 60       	ori	r24, 0x08	; 8
    16ec:	80 83       	st	Z, r24
    16ee:	80 81       	ld	r24, Z
    16f0:	84 60       	ori	r24, 0x04	; 4
    16f2:	80 83       	st	Z, r24
    16f4:	f1 10       	cpse	r15, r1
    16f6:	30 d2       	rcall	.+1120   	; 0x1b58 <init_tal_pib>
    16f8:	7d d2       	rcall	.+1274   	; 0x1bf4 <write_all_tal_pib_to_trx>
    16fa:	10 92 ac 54 	sts	0x54AC, r1	; 0x8054ac <tal_state>
    16fe:	10 92 80 54 	sts	0x5480, r1	; 0x805480 <tal_rx_on_required>
    1702:	80 e0       	ldi	r24, 0x00	; 0
    1704:	01 c0       	rjmp	.+2      	; 0x1708 <internal_tal_reset+0xd6>
    1706:	85 e8       	ldi	r24, 0x85	; 133
    1708:	df 91       	pop	r29
    170a:	cf 91       	pop	r28
    170c:	1f 91       	pop	r17
    170e:	0f 91       	pop	r16
    1710:	ff 90       	pop	r15
    1712:	08 95       	ret

00001714 <tal_init>:
    1714:	cf 92       	push	r12
    1716:	df 92       	push	r13
    1718:	ef 92       	push	r14
    171a:	ff 92       	push	r15
    171c:	0f 93       	push	r16
    171e:	1f 93       	push	r17
    1720:	cf 93       	push	r28
    1722:	df 93       	push	r29
    1724:	14 be       	out	0x34, r1	; 52
    1726:	80 e1       	ldi	r24, 0x10	; 16
    1728:	80 93 35 01 	sts	0x0135, r24	; 0x800135 <__TEXT_REGION_LENGTH__+0x7c0135>
    172c:	80 93 34 01 	sts	0x0134, r24	; 0x800134 <__TEXT_REGION_LENGTH__+0x7c0134>
    1730:	80 93 33 01 	sts	0x0133, r24	; 0x800133 <__TEXT_REGION_LENGTH__+0x7c0133>
    1734:	80 93 32 01 	sts	0x0132, r24	; 0x800132 <__TEXT_REGION_LENGTH__+0x7c0132>
    1738:	92 dc       	rcall	.-1756   	; 0x105e <pal_init>
    173a:	81 11       	cpse	r24, r1
    173c:	6d c0       	rjmp	.+218    	; 0x1818 <tal_init+0x104>
    173e:	60 e4       	ldi	r22, 0x40	; 64
    1740:	81 e0       	ldi	r24, 0x01	; 1
    1742:	ba da       	rcall	.-2700   	; 0xcb8 <sysclk_enable_module>
    1744:	c9 e3       	ldi	r28, 0x39	; 57
    1746:	d1 e0       	ldi	r29, 0x01	; 1
    1748:	88 81       	ld	r24, Y
    174a:	81 60       	ori	r24, 0x01	; 1
    174c:	88 83       	st	Y, r24
    174e:	88 81       	ld	r24, Y
    1750:	8d 7f       	andi	r24, 0xFD	; 253
    1752:	88 83       	st	Y, r24
    1754:	6b ef       	ldi	r22, 0xFB	; 251
    1756:	71 e0       	ldi	r23, 0x01	; 1
    1758:	80 e0       	ldi	r24, 0x00	; 0
    175a:	90 e0       	ldi	r25, 0x00	; 0
    175c:	1c df       	rcall	.-456    	; 0x1596 <__portable_avr_delay_cycles>
    175e:	88 81       	ld	r24, Y
    1760:	8e 7f       	andi	r24, 0xFE	; 254
    1762:	88 83       	st	Y, r24
    1764:	62 e0       	ldi	r22, 0x02	; 2
    1766:	70 e0       	ldi	r23, 0x00	; 0
    1768:	80 e0       	ldi	r24, 0x00	; 0
    176a:	90 e0       	ldi	r25, 0x00	; 0
    176c:	14 df       	rcall	.-472    	; 0x1596 <__portable_avr_delay_cycles>
    176e:	88 81       	ld	r24, Y
    1770:	81 60       	ori	r24, 0x01	; 1
    1772:	88 83       	st	Y, r24
    1774:	66 e8       	ldi	r22, 0x86	; 134
    1776:	70 e0       	ldi	r23, 0x00	; 0
    1778:	80 e0       	ldi	r24, 0x00	; 0
    177a:	90 e0       	ldi	r25, 0x00	; 0
    177c:	0c df       	rcall	.-488    	; 0x1596 <__portable_avr_delay_cycles>
    177e:	80 91 41 01 	lds	r24, 0x0141	; 0x800141 <__TEXT_REGION_LENGTH__+0x7c0141>
    1782:	8f 71       	andi	r24, 0x1F	; 31
    1784:	ca e0       	ldi	r28, 0x0A	; 10
    1786:	01 e4       	ldi	r16, 0x41	; 65
    1788:	11 e0       	ldi	r17, 0x01	; 1
    178a:	0b c0       	rjmp	.+22     	; 0x17a2 <tal_init+0x8e>
    178c:	66 e8       	ldi	r22, 0x86	; 134
    178e:	70 e0       	ldi	r23, 0x00	; 0
    1790:	80 e0       	ldi	r24, 0x00	; 0
    1792:	90 e0       	ldi	r25, 0x00	; 0
    1794:	00 df       	rcall	.-512    	; 0x1596 <__portable_avr_delay_cycles>
    1796:	f8 01       	movw	r30, r16
    1798:	80 81       	ld	r24, Z
    179a:	8f 71       	andi	r24, 0x1F	; 31
    179c:	c1 50       	subi	r28, 0x01	; 1
    179e:	09 f4       	brne	.+2      	; 0x17a2 <tal_init+0x8e>
    17a0:	51 c0       	rjmp	.+162    	; 0x1844 <tal_init+0x130>
    17a2:	88 30       	cpi	r24, 0x08	; 8
    17a4:	99 f7       	brne	.-26     	; 0x178c <tal_init+0x78>
    17a6:	80 93 a7 54 	sts	0x54A7, r24	; 0x8054a7 <tal_trx_status>
    17aa:	80 91 5c 01 	lds	r24, 0x015C	; 0x80015c <__TEXT_REGION_LENGTH__+0x7c015c>
    17ae:	84 39       	cpi	r24, 0x94	; 148
    17b0:	09 f0       	breq	.+2      	; 0x17b4 <tal_init+0xa0>
    17b2:	48 c0       	rjmp	.+144    	; 0x1844 <tal_init+0x130>
    17b4:	35 c0       	rjmp	.+106    	; 0x1820 <tal_init+0x10c>
    17b6:	0e 94 35 17 	call	0x2e6a	; 0x2e6a <rand>
    17ba:	f8 01       	movw	r30, r16
    17bc:	81 93       	st	Z+, r24
    17be:	8f 01       	movw	r16, r30
    17c0:	ec 15       	cp	r30, r12
    17c2:	fd 05       	cpc	r31, r13
    17c4:	c1 f7       	brne	.-16     	; 0x17b6 <tal_init+0xa2>
    17c6:	f7 01       	movw	r30, r14
    17c8:	20 81       	ld	r18, Z
    17ca:	31 81       	ldd	r19, Z+1	; 0x01
    17cc:	42 81       	ldd	r20, Z+2	; 0x02
    17ce:	53 81       	ldd	r21, Z+3	; 0x03
    17d0:	64 81       	ldd	r22, Z+4	; 0x04
    17d2:	75 81       	ldd	r23, Z+5	; 0x05
    17d4:	86 81       	ldd	r24, Z+6	; 0x06
    17d6:	97 81       	ldd	r25, Z+7	; 0x07
    17d8:	af ef       	ldi	r26, 0xFF	; 255
    17da:	0e 94 d6 16 	call	0x2dac	; 0x2dac <__adddi3_s8>
    17de:	ad ef       	ldi	r26, 0xFD	; 253
    17e0:	0e 94 e2 16 	call	0x2dc4	; 0x2dc4 <__cmpdi2_s8>
    17e4:	21 f0       	breq	.+8      	; 0x17ee <tal_init+0xda>
    17e6:	18 f0       	brcs	.+6      	; 0x17ee <tal_init+0xda>
    17e8:	08 e8       	ldi	r16, 0x88	; 136
    17ea:	14 e5       	ldi	r17, 0x54	; 84
    17ec:	e4 cf       	rjmp	.-56     	; 0x17b6 <tal_init+0xa2>
    17ee:	86 e5       	ldi	r24, 0x56	; 86
    17f0:	9d e0       	ldi	r25, 0x0D	; 13
    17f2:	38 d0       	rcall	.+112    	; 0x1864 <pal_trx_irq_init_rx_end>
    17f4:	87 e6       	ldi	r24, 0x67	; 103
    17f6:	9d e0       	ldi	r25, 0x0D	; 13
    17f8:	30 d0       	rcall	.+96     	; 0x185a <pal_trx_irq_init_tx_end>
    17fa:	88 e7       	ldi	r24, 0x78	; 120
    17fc:	9d e0       	ldi	r25, 0x0D	; 13
    17fe:	37 d0       	rcall	.+110    	; 0x186e <pal_trx_irq_init_awake>
    1800:	32 dc       	rcall	.-1948   	; 0x1066 <bmm_buffer_init>
    1802:	8b e8       	ldi	r24, 0x8B	; 139
    1804:	54 dc       	rcall	.-1880   	; 0x10ae <bmm_buffer_alloc>
    1806:	90 93 80 05 	sts	0x0580, r25	; 0x800580 <tal_rx_buffer+0x1>
    180a:	80 93 7f 05 	sts	0x057F, r24	; 0x80057f <tal_rx_buffer>
    180e:	81 e8       	ldi	r24, 0x81	; 129
    1810:	94 e5       	ldi	r25, 0x54	; 84
    1812:	de dc       	rcall	.-1604   	; 0x11d0 <qmm_queue_init>
    1814:	cb d5       	rcall	.+2966   	; 0x23ac <tfa_init>
    1816:	17 c0       	rjmp	.+46     	; 0x1846 <tal_init+0x132>
    1818:	c5 e8       	ldi	r28, 0x85	; 133
    181a:	15 c0       	rjmp	.+42     	; 0x1846 <tal_init+0x132>
    181c:	c5 e8       	ldi	r28, 0x85	; 133
    181e:	13 c0       	rjmp	.+38     	; 0x1846 <tal_init+0x132>
    1820:	81 e0       	ldi	r24, 0x01	; 1
    1822:	07 df       	rcall	.-498    	; 0x1632 <internal_tal_reset>
    1824:	c8 2f       	mov	r28, r24
    1826:	81 11       	cpse	r24, r1
    1828:	f9 cf       	rjmp	.-14     	; 0x181c <tal_init+0x108>
    182a:	0f 2e       	mov	r0, r31
    182c:	f8 e8       	ldi	r31, 0x88	; 136
    182e:	ef 2e       	mov	r14, r31
    1830:	f4 e5       	ldi	r31, 0x54	; 84
    1832:	ff 2e       	mov	r15, r31
    1834:	f0 2d       	mov	r31, r0
    1836:	0f 2e       	mov	r0, r31
    1838:	f0 e9       	ldi	r31, 0x90	; 144
    183a:	cf 2e       	mov	r12, r31
    183c:	f4 e5       	ldi	r31, 0x54	; 84
    183e:	df 2e       	mov	r13, r31
    1840:	f0 2d       	mov	r31, r0
    1842:	c1 cf       	rjmp	.-126    	; 0x17c6 <tal_init+0xb2>
    1844:	c5 e8       	ldi	r28, 0x85	; 133
    1846:	8c 2f       	mov	r24, r28
    1848:	df 91       	pop	r29
    184a:	cf 91       	pop	r28
    184c:	1f 91       	pop	r17
    184e:	0f 91       	pop	r16
    1850:	ff 90       	pop	r15
    1852:	ef 90       	pop	r14
    1854:	df 90       	pop	r13
    1856:	cf 90       	pop	r12
    1858:	08 95       	ret

0000185a <pal_trx_irq_init_tx_end>:
    185a:	90 93 88 05 	sts	0x0588, r25	; 0x800588 <irq_hdl_trx_tx_end+0x1>
    185e:	80 93 87 05 	sts	0x0587, r24	; 0x800587 <irq_hdl_trx_tx_end>
    1862:	08 95       	ret

00001864 <pal_trx_irq_init_rx_end>:
    1864:	90 93 86 05 	sts	0x0586, r25	; 0x800586 <irq_hdl_trx_rx_end+0x1>
    1868:	80 93 85 05 	sts	0x0585, r24	; 0x800585 <irq_hdl_trx_rx_end>
    186c:	08 95       	ret

0000186e <pal_trx_irq_init_awake>:
    186e:	90 93 82 05 	sts	0x0582, r25	; 0x800582 <irq_hdl_trx_awake+0x1>
    1872:	80 93 81 05 	sts	0x0581, r24	; 0x800581 <irq_hdl_trx_awake>
    1876:	08 95       	ret

00001878 <__vector_63>:
    1878:	1f 92       	push	r1
    187a:	0f 92       	push	r0
    187c:	0f b6       	in	r0, 0x3f	; 63
    187e:	0f 92       	push	r0
    1880:	11 24       	eor	r1, r1
    1882:	0b b6       	in	r0, 0x3b	; 59
    1884:	0f 92       	push	r0
    1886:	2f 93       	push	r18
    1888:	3f 93       	push	r19
    188a:	4f 93       	push	r20
    188c:	5f 93       	push	r21
    188e:	6f 93       	push	r22
    1890:	7f 93       	push	r23
    1892:	8f 93       	push	r24
    1894:	9f 93       	push	r25
    1896:	af 93       	push	r26
    1898:	bf 93       	push	r27
    189a:	ef 93       	push	r30
    189c:	ff 93       	push	r31
    189e:	e0 91 87 05 	lds	r30, 0x0587	; 0x800587 <irq_hdl_trx_tx_end>
    18a2:	f0 91 88 05 	lds	r31, 0x0588	; 0x800588 <irq_hdl_trx_tx_end+0x1>
    18a6:	19 95       	eicall
    18a8:	ff 91       	pop	r31
    18aa:	ef 91       	pop	r30
    18ac:	bf 91       	pop	r27
    18ae:	af 91       	pop	r26
    18b0:	9f 91       	pop	r25
    18b2:	8f 91       	pop	r24
    18b4:	7f 91       	pop	r23
    18b6:	6f 91       	pop	r22
    18b8:	5f 91       	pop	r21
    18ba:	4f 91       	pop	r20
    18bc:	3f 91       	pop	r19
    18be:	2f 91       	pop	r18
    18c0:	0f 90       	pop	r0
    18c2:	0b be       	out	0x3b, r0	; 59
    18c4:	0f 90       	pop	r0
    18c6:	0f be       	out	0x3f, r0	; 63
    18c8:	0f 90       	pop	r0
    18ca:	1f 90       	pop	r1
    18cc:	18 95       	reti

000018ce <__vector_60>:
    18ce:	1f 92       	push	r1
    18d0:	0f 92       	push	r0
    18d2:	0f b6       	in	r0, 0x3f	; 63
    18d4:	0f 92       	push	r0
    18d6:	11 24       	eor	r1, r1
    18d8:	0b b6       	in	r0, 0x3b	; 59
    18da:	0f 92       	push	r0
    18dc:	2f 93       	push	r18
    18de:	3f 93       	push	r19
    18e0:	4f 93       	push	r20
    18e2:	5f 93       	push	r21
    18e4:	6f 93       	push	r22
    18e6:	7f 93       	push	r23
    18e8:	8f 93       	push	r24
    18ea:	9f 93       	push	r25
    18ec:	af 93       	push	r26
    18ee:	bf 93       	push	r27
    18f0:	ef 93       	push	r30
    18f2:	ff 93       	push	r31
    18f4:	e0 91 85 05 	lds	r30, 0x0585	; 0x800585 <irq_hdl_trx_rx_end>
    18f8:	f0 91 86 05 	lds	r31, 0x0586	; 0x800586 <irq_hdl_trx_rx_end+0x1>
    18fc:	19 95       	eicall
    18fe:	ff 91       	pop	r31
    1900:	ef 91       	pop	r30
    1902:	bf 91       	pop	r27
    1904:	af 91       	pop	r26
    1906:	9f 91       	pop	r25
    1908:	8f 91       	pop	r24
    190a:	7f 91       	pop	r23
    190c:	6f 91       	pop	r22
    190e:	5f 91       	pop	r21
    1910:	4f 91       	pop	r20
    1912:	3f 91       	pop	r19
    1914:	2f 91       	pop	r18
    1916:	0f 90       	pop	r0
    1918:	0b be       	out	0x3b, r0	; 59
    191a:	0f 90       	pop	r0
    191c:	0f be       	out	0x3f, r0	; 63
    191e:	0f 90       	pop	r0
    1920:	1f 90       	pop	r1
    1922:	18 95       	reti

00001924 <__vector_61>:
    1924:	1f 92       	push	r1
    1926:	0f 92       	push	r0
    1928:	0f b6       	in	r0, 0x3f	; 63
    192a:	0f 92       	push	r0
    192c:	11 24       	eor	r1, r1
    192e:	0b b6       	in	r0, 0x3b	; 59
    1930:	0f 92       	push	r0
    1932:	2f 93       	push	r18
    1934:	3f 93       	push	r19
    1936:	4f 93       	push	r20
    1938:	5f 93       	push	r21
    193a:	6f 93       	push	r22
    193c:	7f 93       	push	r23
    193e:	8f 93       	push	r24
    1940:	9f 93       	push	r25
    1942:	af 93       	push	r26
    1944:	bf 93       	push	r27
    1946:	ef 93       	push	r30
    1948:	ff 93       	push	r31
    194a:	e0 91 83 05 	lds	r30, 0x0583	; 0x800583 <irq_hdl_trx_cca_ed>
    194e:	f0 91 84 05 	lds	r31, 0x0584	; 0x800584 <irq_hdl_trx_cca_ed+0x1>
    1952:	19 95       	eicall
    1954:	ff 91       	pop	r31
    1956:	ef 91       	pop	r30
    1958:	bf 91       	pop	r27
    195a:	af 91       	pop	r26
    195c:	9f 91       	pop	r25
    195e:	8f 91       	pop	r24
    1960:	7f 91       	pop	r23
    1962:	6f 91       	pop	r22
    1964:	5f 91       	pop	r21
    1966:	4f 91       	pop	r20
    1968:	3f 91       	pop	r19
    196a:	2f 91       	pop	r18
    196c:	0f 90       	pop	r0
    196e:	0b be       	out	0x3b, r0	; 59
    1970:	0f 90       	pop	r0
    1972:	0f be       	out	0x3f, r0	; 63
    1974:	0f 90       	pop	r0
    1976:	1f 90       	pop	r1
    1978:	18 95       	reti

0000197a <__vector_64>:
    197a:	1f 92       	push	r1
    197c:	0f 92       	push	r0
    197e:	0f b6       	in	r0, 0x3f	; 63
    1980:	0f 92       	push	r0
    1982:	11 24       	eor	r1, r1
    1984:	0b b6       	in	r0, 0x3b	; 59
    1986:	0f 92       	push	r0
    1988:	2f 93       	push	r18
    198a:	3f 93       	push	r19
    198c:	4f 93       	push	r20
    198e:	5f 93       	push	r21
    1990:	6f 93       	push	r22
    1992:	7f 93       	push	r23
    1994:	8f 93       	push	r24
    1996:	9f 93       	push	r25
    1998:	af 93       	push	r26
    199a:	bf 93       	push	r27
    199c:	ef 93       	push	r30
    199e:	ff 93       	push	r31
    19a0:	e0 91 81 05 	lds	r30, 0x0581	; 0x800581 <irq_hdl_trx_awake>
    19a4:	f0 91 82 05 	lds	r31, 0x0582	; 0x800582 <irq_hdl_trx_awake+0x1>
    19a8:	19 95       	eicall
    19aa:	ff 91       	pop	r31
    19ac:	ef 91       	pop	r30
    19ae:	bf 91       	pop	r27
    19b0:	af 91       	pop	r26
    19b2:	9f 91       	pop	r25
    19b4:	8f 91       	pop	r24
    19b6:	7f 91       	pop	r23
    19b8:	6f 91       	pop	r22
    19ba:	5f 91       	pop	r21
    19bc:	4f 91       	pop	r20
    19be:	3f 91       	pop	r19
    19c0:	2f 91       	pop	r18
    19c2:	0f 90       	pop	r0
    19c4:	0b be       	out	0x3b, r0	; 59
    19c6:	0f 90       	pop	r0
    19c8:	0f be       	out	0x3f, r0	; 63
    19ca:	0f 90       	pop	r0
    19cc:	1f 90       	pop	r1
    19ce:	18 95       	reti

000019d0 <__vector_59>:
    19d0:	1f 92       	push	r1
    19d2:	0f 92       	push	r0
    19d4:	0f b6       	in	r0, 0x3f	; 63
    19d6:	0f 92       	push	r0
    19d8:	11 24       	eor	r1, r1
    19da:	0f 90       	pop	r0
    19dc:	0f be       	out	0x3f, r0	; 63
    19de:	0f 90       	pop	r0
    19e0:	1f 90       	pop	r1
    19e2:	18 95       	reti

000019e4 <__vector_57>:
    19e4:	1f 92       	push	r1
    19e6:	0f 92       	push	r0
    19e8:	0f b6       	in	r0, 0x3f	; 63
    19ea:	0f 92       	push	r0
    19ec:	11 24       	eor	r1, r1
    19ee:	0f 90       	pop	r0
    19f0:	0f be       	out	0x3f, r0	; 63
    19f2:	0f 90       	pop	r0
    19f4:	1f 90       	pop	r1
    19f6:	18 95       	reti

000019f8 <__vector_58>:
    19f8:	1f 92       	push	r1
    19fa:	0f 92       	push	r0
    19fc:	0f b6       	in	r0, 0x3f	; 63
    19fe:	0f 92       	push	r0
    1a00:	11 24       	eor	r1, r1
    1a02:	0f 90       	pop	r0
    1a04:	0f be       	out	0x3f, r0	; 63
    1a06:	0f 90       	pop	r0
    1a08:	1f 90       	pop	r1
    1a0a:	18 95       	reti

00001a0c <__vector_62>:
    1a0c:	1f 92       	push	r1
    1a0e:	0f 92       	push	r0
    1a10:	0f b6       	in	r0, 0x3f	; 63
    1a12:	0f 92       	push	r0
    1a14:	11 24       	eor	r1, r1
    1a16:	0f 90       	pop	r0
    1a18:	0f be       	out	0x3f, r0	; 63
    1a1a:	0f 90       	pop	r0
    1a1c:	1f 90       	pop	r1
    1a1e:	18 95       	reti

00001a20 <__vector_71>:
    1a20:	1f 92       	push	r1
    1a22:	0f 92       	push	r0
    1a24:	0f b6       	in	r0, 0x3f	; 63
    1a26:	0f 92       	push	r0
    1a28:	11 24       	eor	r1, r1
    1a2a:	0f 90       	pop	r0
    1a2c:	0f be       	out	0x3f, r0	; 63
    1a2e:	0f 90       	pop	r0
    1a30:	1f 90       	pop	r1
    1a32:	18 95       	reti

00001a34 <__vector_70>:
    1a34:	1f 92       	push	r1
    1a36:	0f 92       	push	r0
    1a38:	0f b6       	in	r0, 0x3f	; 63
    1a3a:	0f 92       	push	r0
    1a3c:	11 24       	eor	r1, r1
    1a3e:	0f 90       	pop	r0
    1a40:	0f be       	out	0x3f, r0	; 63
    1a42:	0f 90       	pop	r0
    1a44:	1f 90       	pop	r1
    1a46:	18 95       	reti

00001a48 <__vector_72>:
    1a48:	1f 92       	push	r1
    1a4a:	0f 92       	push	r0
    1a4c:	0f b6       	in	r0, 0x3f	; 63
    1a4e:	0f 92       	push	r0
    1a50:	11 24       	eor	r1, r1
    1a52:	0f 90       	pop	r0
    1a54:	0f be       	out	0x3f, r0	; 63
    1a56:	0f 90       	pop	r0
    1a58:	1f 90       	pop	r1
    1a5a:	18 95       	reti

00001a5c <__vector_73>:
    1a5c:	1f 92       	push	r1
    1a5e:	0f 92       	push	r0
    1a60:	0f b6       	in	r0, 0x3f	; 63
    1a62:	0f 92       	push	r0
    1a64:	11 24       	eor	r1, r1
    1a66:	0f 90       	pop	r0
    1a68:	0f be       	out	0x3f, r0	; 63
    1a6a:	0f 90       	pop	r0
    1a6c:	1f 90       	pop	r1
    1a6e:	18 95       	reti

00001a70 <__vector_74>:
    1a70:	1f 92       	push	r1
    1a72:	0f 92       	push	r0
    1a74:	0f b6       	in	r0, 0x3f	; 63
    1a76:	0f 92       	push	r0
    1a78:	11 24       	eor	r1, r1
    1a7a:	0f 90       	pop	r0
    1a7c:	0f be       	out	0x3f, r0	; 63
    1a7e:	0f 90       	pop	r0
    1a80:	1f 90       	pop	r1
    1a82:	18 95       	reti

00001a84 <__vector_75>:
    1a84:	1f 92       	push	r1
    1a86:	0f 92       	push	r0
    1a88:	0f b6       	in	r0, 0x3f	; 63
    1a8a:	0f 92       	push	r0
    1a8c:	11 24       	eor	r1, r1
    1a8e:	0f 90       	pop	r0
    1a90:	0f be       	out	0x3f, r0	; 63
    1a92:	0f 90       	pop	r0
    1a94:	1f 90       	pop	r1
    1a96:	18 95       	reti

00001a98 <__vector_76>:
    1a98:	1f 92       	push	r1
    1a9a:	0f 92       	push	r0
    1a9c:	0f b6       	in	r0, 0x3f	; 63
    1a9e:	0f 92       	push	r0
    1aa0:	11 24       	eor	r1, r1
    1aa2:	0f 90       	pop	r0
    1aa4:	0f be       	out	0x3f, r0	; 63
    1aa6:	0f 90       	pop	r0
    1aa8:	1f 90       	pop	r1
    1aaa:	18 95       	reti

00001aac <trx_rx_end_handler_cb>:
    1aac:	1f 93       	push	r17
    1aae:	cf 93       	push	r28
    1ab0:	df 93       	push	r29
    1ab2:	1f 92       	push	r1
    1ab4:	cd b7       	in	r28, 0x3d	; 61
    1ab6:	de b7       	in	r29, 0x3e	; 62
    1ab8:	8f b7       	in	r24, 0x3f	; 63
    1aba:	89 83       	std	Y+1, r24	; 0x01
    1abc:	f8 94       	cli
    1abe:	19 81       	ldd	r17, Y+1	; 0x01
    1ac0:	19 d2       	rcall	.+1074   	; 0x1ef4 <handle_received_frame_irq>
    1ac2:	1f bf       	out	0x3f, r17	; 63
    1ac4:	0f 90       	pop	r0
    1ac6:	df 91       	pop	r29
    1ac8:	cf 91       	pop	r28
    1aca:	1f 91       	pop	r17
    1acc:	08 95       	ret

00001ace <trx_tx_end_handler_cb>:
    1ace:	1f 93       	push	r17
    1ad0:	cf 93       	push	r28
    1ad2:	df 93       	push	r29
    1ad4:	1f 92       	push	r1
    1ad6:	cd b7       	in	r28, 0x3d	; 61
    1ad8:	de b7       	in	r29, 0x3e	; 62
    1ada:	8f b7       	in	r24, 0x3f	; 63
    1adc:	89 83       	std	Y+1, r24	; 0x01
    1ade:	f8 94       	cli
    1ae0:	19 81       	ldd	r17, Y+1	; 0x01
    1ae2:	a6 d3       	rcall	.+1868   	; 0x2230 <handle_tx_end_irq>
    1ae4:	1f bf       	out	0x3f, r17	; 63
    1ae6:	0f 90       	pop	r0
    1ae8:	df 91       	pop	r29
    1aea:	cf 91       	pop	r28
    1aec:	1f 91       	pop	r17
    1aee:	08 95       	ret

00001af0 <trx_awake_handler_cb>:
    1af0:	81 e0       	ldi	r24, 0x01	; 1
    1af2:	80 93 ab 54 	sts	0x54AB, r24	; 0x8054ab <tal_awake_end_flag>
    1af6:	08 95       	ret

00001af8 <limit_tx_pwr>:
    1af8:	85 fd       	sbrc	r24, 5
    1afa:	03 c0       	rjmp	.+6      	; 0x1b02 <limit_tx_pwr+0xa>
    1afc:	98 2f       	mov	r25, r24
    1afe:	9f 73       	andi	r25, 0x3F	; 63
    1b00:	04 c0       	rjmp	.+8      	; 0x1b0a <limit_tx_pwr+0x12>
    1b02:	98 2f       	mov	r25, r24
    1b04:	91 95       	neg	r25
    1b06:	9f 71       	andi	r25, 0x1F	; 31
    1b08:	91 95       	neg	r25
    1b0a:	e2 e6       	ldi	r30, 0x62	; 98
    1b0c:	f1 e0       	ldi	r31, 0x01	; 1
    1b0e:	24 91       	lpm	r18, Z
    1b10:	29 17       	cp	r18, r25
    1b12:	54 f4       	brge	.+20     	; 0x1b28 <limit_tx_pwr+0x30>
    1b14:	84 91       	lpm	r24, Z
    1b16:	80 3e       	cpi	r24, 0xE0	; 224
    1b18:	b4 f0       	brlt	.+44     	; 0x1b46 <limit_tx_pwr+0x4e>
    1b1a:	80 32       	cpi	r24, 0x20	; 32
    1b1c:	b4 f4       	brge	.+44     	; 0x1b4a <limit_tx_pwr+0x52>
    1b1e:	88 23       	and	r24, r24
    1b20:	cc f4       	brge	.+50     	; 0x1b54 <limit_tx_pwr+0x5c>
    1b22:	8f 71       	andi	r24, 0x1F	; 31
    1b24:	80 62       	ori	r24, 0x20	; 32
    1b26:	16 c0       	rjmp	.+44     	; 0x1b54 <limit_tx_pwr+0x5c>
    1b28:	e1 e7       	ldi	r30, 0x71	; 113
    1b2a:	f1 e0       	ldi	r31, 0x01	; 1
    1b2c:	24 91       	lpm	r18, Z
    1b2e:	92 17       	cp	r25, r18
    1b30:	8c f4       	brge	.+34     	; 0x1b54 <limit_tx_pwr+0x5c>
    1b32:	84 91       	lpm	r24, Z
    1b34:	80 3e       	cpi	r24, 0xE0	; 224
    1b36:	5c f0       	brlt	.+22     	; 0x1b4e <limit_tx_pwr+0x56>
    1b38:	80 32       	cpi	r24, 0x20	; 32
    1b3a:	5c f4       	brge	.+22     	; 0x1b52 <limit_tx_pwr+0x5a>
    1b3c:	88 23       	and	r24, r24
    1b3e:	54 f4       	brge	.+20     	; 0x1b54 <limit_tx_pwr+0x5c>
    1b40:	8f 71       	andi	r24, 0x1F	; 31
    1b42:	80 62       	ori	r24, 0x20	; 32
    1b44:	07 c0       	rjmp	.+14     	; 0x1b54 <limit_tx_pwr+0x5c>
    1b46:	80 e2       	ldi	r24, 0x20	; 32
    1b48:	05 c0       	rjmp	.+10     	; 0x1b54 <limit_tx_pwr+0x5c>
    1b4a:	8f e1       	ldi	r24, 0x1F	; 31
    1b4c:	03 c0       	rjmp	.+6      	; 0x1b54 <limit_tx_pwr+0x5c>
    1b4e:	80 e2       	ldi	r24, 0x20	; 32
    1b50:	01 c0       	rjmp	.+2      	; 0x1b54 <limit_tx_pwr+0x5c>
    1b52:	8f e1       	ldi	r24, 0x1F	; 31
    1b54:	80 68       	ori	r24, 0x80	; 128
    1b56:	08 95       	ret

00001b58 <init_tal_pib>:
    1b58:	cf 93       	push	r28
    1b5a:	df 93       	push	r29
    1b5c:	c8 e8       	ldi	r28, 0x88	; 136
    1b5e:	d4 e5       	ldi	r29, 0x54	; 84
    1b60:	84 e0       	ldi	r24, 0x04	; 4
    1b62:	8c 8b       	std	Y+20, r24	; 0x14
    1b64:	83 e0       	ldi	r24, 0x03	; 3
    1b66:	8d 8b       	std	Y+21, r24	; 0x15
    1b68:	2f ef       	ldi	r18, 0xFF	; 255
    1b6a:	3f ef       	ldi	r19, 0xFF	; 255
    1b6c:	3f 87       	std	Y+15, r19	; 0x0f
    1b6e:	2e 87       	std	Y+14, r18	; 0x0e
    1b70:	3d 87       	std	Y+13, r19	; 0x0d
    1b72:	2c 87       	std	Y+12, r18	; 0x0c
    1b74:	9b e0       	ldi	r25, 0x0B	; 11
    1b76:	9b 8b       	std	Y+19, r25	; 0x13
    1b78:	18 8e       	std	Y+24, r1	; 0x18
    1b7a:	40 e0       	ldi	r20, 0x00	; 0
    1b7c:	58 ef       	ldi	r21, 0xF8	; 248
    1b7e:	6f ef       	ldi	r22, 0xFF	; 255
    1b80:	77 e0       	ldi	r23, 0x07	; 7
    1b82:	48 87       	std	Y+8, r20	; 0x08
    1b84:	59 87       	std	Y+9, r21	; 0x09
    1b86:	6a 87       	std	Y+10, r22	; 0x0a
    1b88:	7b 87       	std	Y+11, r23	; 0x0b
    1b8a:	2a e0       	ldi	r18, 0x0A	; 10
    1b8c:	31 e0       	ldi	r19, 0x01	; 1
    1b8e:	39 8b       	std	Y+17, r19	; 0x11
    1b90:	28 8b       	std	Y+16, r18	; 0x10
    1b92:	9a e0       	ldi	r25, 0x0A	; 10
    1b94:	99 8f       	std	Y+25, r25	; 0x19
    1b96:	92 e0       	ldi	r25, 0x02	; 2
    1b98:	9a 8f       	std	Y+26, r25	; 0x1a
    1b9a:	95 e0       	ldi	r25, 0x05	; 5
    1b9c:	9b 8f       	std	Y+27, r25	; 0x1b
    1b9e:	8c 8f       	std	Y+28, r24	; 0x1c
    1ba0:	84 e8       	ldi	r24, 0x84	; 132
    1ba2:	aa df       	rcall	.-172    	; 0x1af8 <limit_tx_pwr>
    1ba4:	8f 8b       	std	Y+23, r24	; 0x17
    1ba6:	81 e0       	ldi	r24, 0x01	; 1
    1ba8:	8a 8b       	std	Y+18, r24	; 0x12
    1baa:	1e 8a       	std	Y+22, r1	; 0x16
    1bac:	df 91       	pop	r29
    1bae:	cf 91       	pop	r28
    1bb0:	08 95       	ret

00001bb2 <convert_phyTransmitPower_to_reg_value>:
    1bb2:	85 fd       	sbrc	r24, 5
    1bb4:	02 c0       	rjmp	.+4      	; 0x1bba <convert_phyTransmitPower_to_reg_value+0x8>
    1bb6:	8f 73       	andi	r24, 0x3F	; 63
    1bb8:	03 c0       	rjmp	.+6      	; 0x1bc0 <convert_phyTransmitPower_to_reg_value+0xe>
    1bba:	81 95       	neg	r24
    1bbc:	8f 71       	andi	r24, 0x1F	; 31
    1bbe:	81 95       	neg	r24
    1bc0:	e2 e6       	ldi	r30, 0x62	; 98
    1bc2:	f1 e0       	ldi	r31, 0x01	; 1
    1bc4:	94 91       	lpm	r25, Z
    1bc6:	89 17       	cp	r24, r25
    1bc8:	3c f4       	brge	.+14     	; 0x1bd8 <convert_phyTransmitPower_to_reg_value+0x26>
    1bca:	e3 e6       	ldi	r30, 0x63	; 99
    1bcc:	f1 e0       	ldi	r31, 0x01	; 1
    1bce:	21 e0       	ldi	r18, 0x01	; 1
    1bd0:	94 91       	lpm	r25, Z
    1bd2:	89 17       	cp	r24, r25
    1bd4:	3c f0       	brlt	.+14     	; 0x1be4 <convert_phyTransmitPower_to_reg_value+0x32>
    1bd6:	01 c0       	rjmp	.+2      	; 0x1bda <convert_phyTransmitPower_to_reg_value+0x28>
    1bd8:	20 e0       	ldi	r18, 0x00	; 0
    1bda:	98 17       	cp	r25, r24
    1bdc:	4c f4       	brge	.+18     	; 0x1bf0 <convert_phyTransmitPower_to_reg_value+0x3e>
    1bde:	8f ef       	ldi	r24, 0xFF	; 255
    1be0:	82 0f       	add	r24, r18
    1be2:	08 95       	ret
    1be4:	2f 5f       	subi	r18, 0xFF	; 255
    1be6:	31 96       	adiw	r30, 0x01	; 1
    1be8:	20 31       	cpi	r18, 0x10	; 16
    1bea:	91 f7       	brne	.-28     	; 0x1bd0 <convert_phyTransmitPower_to_reg_value+0x1e>
    1bec:	80 e0       	ldi	r24, 0x00	; 0
    1bee:	08 95       	ret
    1bf0:	82 2f       	mov	r24, r18
    1bf2:	08 95       	ret

00001bf4 <write_all_tal_pib_to_trx>:
    1bf4:	cf 93       	push	r28
    1bf6:	df 93       	push	r29
    1bf8:	e8 e8       	ldi	r30, 0x88	; 136
    1bfa:	f4 e5       	ldi	r31, 0x54	; 84
    1bfc:	86 85       	ldd	r24, Z+14	; 0x0e
    1bfe:	80 93 62 01 	sts	0x0162, r24	; 0x800162 <__TEXT_REGION_LENGTH__+0x7c0162>
    1c02:	87 85       	ldd	r24, Z+15	; 0x0f
    1c04:	80 93 63 01 	sts	0x0163, r24	; 0x800163 <__TEXT_REGION_LENGTH__+0x7c0163>
    1c08:	e4 e6       	ldi	r30, 0x64	; 100
    1c0a:	f1 e0       	ldi	r31, 0x01	; 1
    1c0c:	a8 e8       	ldi	r26, 0x88	; 136
    1c0e:	b4 e5       	ldi	r27, 0x54	; 84
    1c10:	8d 91       	ld	r24, X+
    1c12:	81 93       	st	Z+, r24
    1c14:	ec 36       	cpi	r30, 0x6C	; 108
    1c16:	31 e0       	ldi	r19, 0x01	; 1
    1c18:	f3 07       	cpc	r31, r19
    1c1a:	d1 f7       	brne	.-12     	; 0x1c10 <write_all_tal_pib_to_trx+0x1c>
    1c1c:	e8 e8       	ldi	r30, 0x88	; 136
    1c1e:	f4 e5       	ldi	r31, 0x54	; 84
    1c20:	84 85       	ldd	r24, Z+12	; 0x0c
    1c22:	80 93 60 01 	sts	0x0160, r24	; 0x800160 <__TEXT_REGION_LENGTH__+0x7c0160>
    1c26:	85 85       	ldd	r24, Z+13	; 0x0d
    1c28:	80 93 61 01 	sts	0x0161, r24	; 0x800161 <__TEXT_REGION_LENGTH__+0x7c0161>
    1c2c:	48 e4       	ldi	r20, 0x48	; 72
    1c2e:	51 e0       	ldi	r21, 0x01	; 1
    1c30:	da 01       	movw	r26, r20
    1c32:	8c 91       	ld	r24, X
    1c34:	22 89       	ldd	r18, Z+18	; 0x12
    1c36:	b0 e2       	ldi	r27, 0x20	; 32
    1c38:	2b 9f       	mul	r18, r27
    1c3a:	90 01       	movw	r18, r0
    1c3c:	11 24       	eor	r1, r1
    1c3e:	20 76       	andi	r18, 0x60	; 96
    1c40:	8f 79       	andi	r24, 0x9F	; 159
    1c42:	82 2b       	or	r24, r18
    1c44:	da 01       	movw	r26, r20
    1c46:	8c 93       	st	X, r24
    1c48:	cf e6       	ldi	r28, 0x6F	; 111
    1c4a:	d1 e0       	ldi	r29, 0x01	; 1
    1c4c:	88 81       	ld	r24, Y
    1c4e:	95 89       	ldd	r25, Z+21	; 0x15
    1c50:	9f 70       	andi	r25, 0x0F	; 15
    1c52:	80 7f       	andi	r24, 0xF0	; 240
    1c54:	89 2b       	or	r24, r25
    1c56:	88 83       	st	Y, r24
    1c58:	2e e6       	ldi	r18, 0x6E	; 110
    1c5a:	31 e0       	ldi	r19, 0x01	; 1
    1c5c:	d9 01       	movw	r26, r18
    1c5e:	8c 91       	ld	r24, X
    1c60:	96 89       	ldd	r25, Z+22	; 0x16
    1c62:	99 0f       	add	r25, r25
    1c64:	99 0f       	add	r25, r25
    1c66:	99 0f       	add	r25, r25
    1c68:	98 70       	andi	r25, 0x08	; 8
    1c6a:	87 7f       	andi	r24, 0xF7	; 247
    1c6c:	89 2b       	or	r24, r25
    1c6e:	8c 93       	st	X, r24
    1c70:	28 81       	ld	r18, Y
    1c72:	93 8d       	ldd	r25, Z+27	; 0x1b
    1c74:	b0 e1       	ldi	r27, 0x10	; 16
    1c76:	9b 9f       	mul	r25, r27
    1c78:	c0 01       	movw	r24, r0
    1c7a:	11 24       	eor	r1, r1
    1c7c:	92 2f       	mov	r25, r18
    1c7e:	9f 70       	andi	r25, 0x0F	; 15
    1c80:	89 2b       	or	r24, r25
    1c82:	88 83       	st	Y, r24
    1c84:	da 01       	movw	r26, r20
    1c86:	8c 91       	ld	r24, X
    1c88:	93 89       	ldd	r25, Z+19	; 0x13
    1c8a:	9f 71       	andi	r25, 0x1F	; 31
    1c8c:	80 7e       	andi	r24, 0xE0	; 224
    1c8e:	89 2b       	or	r24, r25
    1c90:	8c 93       	st	X, r24
    1c92:	87 89       	ldd	r24, Z+23	; 0x17
    1c94:	8e df       	rcall	.-228    	; 0x1bb2 <convert_phyTransmitPower_to_reg_value>
    1c96:	e5 e4       	ldi	r30, 0x45	; 69
    1c98:	f1 e0       	ldi	r31, 0x01	; 1
    1c9a:	90 81       	ld	r25, Z
    1c9c:	90 7f       	andi	r25, 0xF0	; 240
    1c9e:	8f 70       	andi	r24, 0x0F	; 15
    1ca0:	89 2b       	or	r24, r25
    1ca2:	80 83       	st	Z, r24
    1ca4:	df 91       	pop	r29
    1ca6:	cf 91       	pop	r28
    1ca8:	08 95       	ret

00001caa <tal_pib_set>:
    1caa:	cf 93       	push	r28
    1cac:	df 93       	push	r29
    1cae:	8e 34       	cpi	r24, 0x4E	; 78
    1cb0:	41 f0       	breq	.+16     	; 0x1cc2 <tal_pib_set+0x18>
    1cb2:	89 35       	cpi	r24, 0x59	; 89
    1cb4:	61 f4       	brne	.+24     	; 0x1cce <tal_pib_set+0x24>
    1cb6:	fb 01       	movw	r30, r22
    1cb8:	80 81       	ld	r24, Z
    1cba:	80 93 a4 54 	sts	0x54A4, r24	; 0x8054a4 <tal_pib+0x1c>
    1cbe:	80 e0       	ldi	r24, 0x00	; 0
    1cc0:	0b c1       	rjmp	.+534    	; 0x1ed8 <tal_pib_set+0x22e>
    1cc2:	fb 01       	movw	r30, r22
    1cc4:	80 81       	ld	r24, Z
    1cc6:	80 93 9c 54 	sts	0x549C, r24	; 0x80549c <tal_pib+0x14>
    1cca:	80 e0       	ldi	r24, 0x00	; 0
    1ccc:	05 c1       	rjmp	.+522    	; 0x1ed8 <tal_pib_set+0x22e>
    1cce:	90 91 a7 54 	lds	r25, 0x54A7	; 0x8054a7 <tal_trx_status>
    1cd2:	9f 30       	cpi	r25, 0x0F	; 15
    1cd4:	09 f4       	brne	.+2      	; 0x1cd8 <tal_pib_set+0x2e>
    1cd6:	dc c0       	rjmp	.+440    	; 0x1e90 <tal_pib_set+0x1e6>
    1cd8:	8b 30       	cpi	r24, 0x0B	; 11
    1cda:	09 f4       	brne	.+2      	; 0x1cde <tal_pib_set+0x34>
    1cdc:	c9 c0       	rjmp	.+402    	; 0x1e70 <tal_pib_set+0x1c6>
    1cde:	80 f4       	brcc	.+32     	; 0x1d00 <tal_pib_set+0x56>
    1ce0:	eb 01       	movw	r28, r22
    1ce2:	82 30       	cpi	r24, 0x02	; 2
    1ce4:	09 f4       	brne	.+2      	; 0x1ce8 <tal_pib_set+0x3e>
    1ce6:	84 c0       	rjmp	.+264    	; 0x1df0 <tal_pib_set+0x146>
    1ce8:	20 f4       	brcc	.+8      	; 0x1cf2 <tal_pib_set+0x48>
    1cea:	88 23       	and	r24, r24
    1cec:	09 f4       	brne	.+2      	; 0x1cf0 <tal_pib_set+0x46>
    1cee:	46 c0       	rjmp	.+140    	; 0x1d7c <tal_pib_set+0xd2>
    1cf0:	d1 c0       	rjmp	.+418    	; 0x1e94 <tal_pib_set+0x1ea>
    1cf2:	83 30       	cpi	r24, 0x03	; 3
    1cf4:	09 f4       	brne	.+2      	; 0x1cf8 <tal_pib_set+0x4e>
    1cf6:	8c c0       	rjmp	.+280    	; 0x1e10 <tal_pib_set+0x166>
    1cf8:	84 30       	cpi	r24, 0x04	; 4
    1cfa:	09 f4       	brne	.+2      	; 0x1cfe <tal_pib_set+0x54>
    1cfc:	5a c0       	rjmp	.+180    	; 0x1db2 <tal_pib_set+0x108>
    1cfe:	ca c0       	rjmp	.+404    	; 0x1e94 <tal_pib_set+0x1ea>
    1d00:	83 35       	cpi	r24, 0x53	; 83
    1d02:	79 f1       	breq	.+94     	; 0x1d62 <tal_pib_set+0xb8>
    1d04:	28 f4       	brcc	.+10     	; 0x1d10 <tal_pib_set+0x66>
    1d06:	8f 34       	cpi	r24, 0x4F	; 79
    1d08:	51 f0       	breq	.+20     	; 0x1d1e <tal_pib_set+0x74>
    1d0a:	80 35       	cpi	r24, 0x50	; 80
    1d0c:	e9 f0       	breq	.+58     	; 0x1d48 <tal_pib_set+0x9e>
    1d0e:	c2 c0       	rjmp	.+388    	; 0x1e94 <tal_pib_set+0x1ea>
    1d10:	87 35       	cpi	r24, 0x57	; 87
    1d12:	09 f4       	brne	.+2      	; 0x1d16 <tal_pib_set+0x6c>
    1d14:	56 c0       	rjmp	.+172    	; 0x1dc2 <tal_pib_set+0x118>
    1d16:	80 3f       	cpi	r24, 0xF0	; 240
    1d18:	09 f4       	brne	.+2      	; 0x1d1c <tal_pib_set+0x72>
    1d1a:	8b c0       	rjmp	.+278    	; 0x1e32 <tal_pib_set+0x188>
    1d1c:	bb c0       	rjmp	.+374    	; 0x1e94 <tal_pib_set+0x1ea>
    1d1e:	fb 01       	movw	r30, r22
    1d20:	80 81       	ld	r24, Z
    1d22:	e8 e8       	ldi	r30, 0x88	; 136
    1d24:	f4 e5       	ldi	r31, 0x54	; 84
    1d26:	85 8b       	std	Z+21, r24	; 0x15
    1d28:	93 8d       	ldd	r25, Z+27	; 0x1b
    1d2a:	98 17       	cp	r25, r24
    1d2c:	10 f4       	brcc	.+4      	; 0x1d32 <tal_pib_set+0x88>
    1d2e:	90 93 9d 54 	sts	0x549D, r25	; 0x80549d <tal_pib+0x15>
    1d32:	ef e6       	ldi	r30, 0x6F	; 111
    1d34:	f1 e0       	ldi	r31, 0x01	; 1
    1d36:	80 81       	ld	r24, Z
    1d38:	90 91 9d 54 	lds	r25, 0x549D	; 0x80549d <tal_pib+0x15>
    1d3c:	9f 70       	andi	r25, 0x0F	; 15
    1d3e:	80 7f       	andi	r24, 0xF0	; 240
    1d40:	89 2b       	or	r24, r25
    1d42:	80 83       	st	Z, r24
    1d44:	80 e0       	ldi	r24, 0x00	; 0
    1d46:	c8 c0       	rjmp	.+400    	; 0x1ed8 <tal_pib_set+0x22e>
    1d48:	fb 01       	movw	r30, r22
    1d4a:	90 81       	ld	r25, Z
    1d4c:	81 81       	ldd	r24, Z+1	; 0x01
    1d4e:	e8 e8       	ldi	r30, 0x88	; 136
    1d50:	f4 e5       	ldi	r31, 0x54	; 84
    1d52:	96 87       	std	Z+14, r25	; 0x0e
    1d54:	87 87       	std	Z+15, r24	; 0x0f
    1d56:	90 93 62 01 	sts	0x0162, r25	; 0x800162 <__TEXT_REGION_LENGTH__+0x7c0162>
    1d5a:	80 93 63 01 	sts	0x0163, r24	; 0x800163 <__TEXT_REGION_LENGTH__+0x7c0163>
    1d5e:	80 e0       	ldi	r24, 0x00	; 0
    1d60:	bb c0       	rjmp	.+374    	; 0x1ed8 <tal_pib_set+0x22e>
    1d62:	fb 01       	movw	r30, r22
    1d64:	90 81       	ld	r25, Z
    1d66:	81 81       	ldd	r24, Z+1	; 0x01
    1d68:	e8 e8       	ldi	r30, 0x88	; 136
    1d6a:	f4 e5       	ldi	r31, 0x54	; 84
    1d6c:	94 87       	std	Z+12, r25	; 0x0c
    1d6e:	85 87       	std	Z+13, r24	; 0x0d
    1d70:	90 93 60 01 	sts	0x0160, r25	; 0x800160 <__TEXT_REGION_LENGTH__+0x7c0160>
    1d74:	80 93 61 01 	sts	0x0161, r24	; 0x800161 <__TEXT_REGION_LENGTH__+0x7c0161>
    1d78:	80 e0       	ldi	r24, 0x00	; 0
    1d7a:	ae c0       	rjmp	.+348    	; 0x1ed8 <tal_pib_set+0x22e>
    1d7c:	80 91 ac 54 	lds	r24, 0x54AC	; 0x8054ac <tal_state>
    1d80:	81 11       	cpse	r24, r1
    1d82:	8a c0       	rjmp	.+276    	; 0x1e98 <tal_pib_set+0x1ee>
    1d84:	88 81       	ld	r24, Y
    1d86:	40 e0       	ldi	r20, 0x00	; 0
    1d88:	58 ef       	ldi	r21, 0xF8	; 248
    1d8a:	6f ef       	ldi	r22, 0xFF	; 255
    1d8c:	77 e0       	ldi	r23, 0x07	; 7
    1d8e:	08 2e       	mov	r0, r24
    1d90:	04 c0       	rjmp	.+8      	; 0x1d9a <tal_pib_set+0xf0>
    1d92:	76 95       	lsr	r23
    1d94:	67 95       	ror	r22
    1d96:	57 95       	ror	r21
    1d98:	47 95       	ror	r20
    1d9a:	0a 94       	dec	r0
    1d9c:	d2 f7       	brpl	.-12     	; 0x1d92 <tal_pib_set+0xe8>
    1d9e:	40 ff       	sbrs	r20, 0
    1da0:	7d c0       	rjmp	.+250    	; 0x1e9c <tal_pib_set+0x1f2>
    1da2:	98 30       	cpi	r25, 0x08	; 8
    1da4:	09 f4       	brne	.+2      	; 0x1da8 <tal_pib_set+0xfe>
    1da6:	80 c0       	rjmp	.+256    	; 0x1ea8 <tal_pib_set+0x1fe>
    1da8:	88 e0       	ldi	r24, 0x08	; 8
    1daa:	6d da       	rcall	.-2854   	; 0x1286 <set_trx_state>
    1dac:	88 30       	cpi	r24, 0x08	; 8
    1dae:	e1 f7       	brne	.-8      	; 0x1da8 <tal_pib_set+0xfe>
    1db0:	86 c0       	rjmp	.+268    	; 0x1ebe <tal_pib_set+0x214>
    1db2:	80 91 ac 54 	lds	r24, 0x54AC	; 0x8054ac <tal_state>
    1db6:	81 11       	cpse	r24, r1
    1db8:	73 c0       	rjmp	.+230    	; 0x1ea0 <tal_pib_set+0x1f6>
    1dba:	88 81       	ld	r24, Y
    1dbc:	81 11       	cpse	r24, r1
    1dbe:	72 c0       	rjmp	.+228    	; 0x1ea4 <tal_pib_set+0x1fa>
    1dc0:	8b c0       	rjmp	.+278    	; 0x1ed8 <tal_pib_set+0x22e>
    1dc2:	fb 01       	movw	r30, r22
    1dc4:	90 81       	ld	r25, Z
    1dc6:	e8 e8       	ldi	r30, 0x88	; 136
    1dc8:	f4 e5       	ldi	r31, 0x54	; 84
    1dca:	93 8f       	std	Z+27, r25	; 0x1b
    1dcc:	85 89       	ldd	r24, Z+21	; 0x15
    1dce:	98 17       	cp	r25, r24
    1dd0:	10 f4       	brcc	.+4      	; 0x1dd6 <tal_pib_set+0x12c>
    1dd2:	90 93 9d 54 	sts	0x549D, r25	; 0x80549d <tal_pib+0x15>
    1dd6:	ef e6       	ldi	r30, 0x6F	; 111
    1dd8:	f1 e0       	ldi	r31, 0x01	; 1
    1dda:	80 81       	ld	r24, Z
    1ddc:	28 2f       	mov	r18, r24
    1dde:	2f 70       	andi	r18, 0x0F	; 15
    1de0:	30 e1       	ldi	r19, 0x10	; 16
    1de2:	93 9f       	mul	r25, r19
    1de4:	c0 01       	movw	r24, r0
    1de6:	11 24       	eor	r1, r1
    1de8:	82 2b       	or	r24, r18
    1dea:	80 83       	st	Z, r24
    1dec:	80 e0       	ldi	r24, 0x00	; 0
    1dee:	74 c0       	rjmp	.+232    	; 0x1ed8 <tal_pib_set+0x22e>
    1df0:	88 81       	ld	r24, Y
    1df2:	c8 e8       	ldi	r28, 0x88	; 136
    1df4:	d4 e5       	ldi	r29, 0x54	; 84
    1df6:	8f 8b       	std	Y+23, r24	; 0x17
    1df8:	7f de       	rcall	.-770    	; 0x1af8 <limit_tx_pwr>
    1dfa:	8f 8b       	std	Y+23, r24	; 0x17
    1dfc:	da de       	rcall	.-588    	; 0x1bb2 <convert_phyTransmitPower_to_reg_value>
    1dfe:	e5 e4       	ldi	r30, 0x45	; 69
    1e00:	f1 e0       	ldi	r31, 0x01	; 1
    1e02:	90 81       	ld	r25, Z
    1e04:	90 7f       	andi	r25, 0xF0	; 240
    1e06:	8f 70       	andi	r24, 0x0F	; 15
    1e08:	89 2b       	or	r24, r25
    1e0a:	80 83       	st	Z, r24
    1e0c:	80 e0       	ldi	r24, 0x00	; 0
    1e0e:	64 c0       	rjmp	.+200    	; 0x1ed8 <tal_pib_set+0x22e>
    1e10:	88 81       	ld	r24, Y
    1e12:	80 93 9a 54 	sts	0x549A, r24	; 0x80549a <tal_pib+0x12>
    1e16:	e8 e4       	ldi	r30, 0x48	; 72
    1e18:	f1 e0       	ldi	r31, 0x01	; 1
    1e1a:	20 81       	ld	r18, Z
    1e1c:	30 e2       	ldi	r19, 0x20	; 32
    1e1e:	83 9f       	mul	r24, r19
    1e20:	c0 01       	movw	r24, r0
    1e22:	11 24       	eor	r1, r1
    1e24:	80 76       	andi	r24, 0x60	; 96
    1e26:	92 2f       	mov	r25, r18
    1e28:	9f 79       	andi	r25, 0x9F	; 159
    1e2a:	89 2b       	or	r24, r25
    1e2c:	80 83       	st	Z, r24
    1e2e:	80 e0       	ldi	r24, 0x00	; 0
    1e30:	53 c0       	rjmp	.+166    	; 0x1ed8 <tal_pib_set+0x22e>
    1e32:	fb 01       	movw	r30, r22
    1e34:	b0 81       	ld	r27, Z
    1e36:	a1 81       	ldd	r26, Z+1	; 0x01
    1e38:	52 81       	ldd	r21, Z+2	; 0x02
    1e3a:	43 81       	ldd	r20, Z+3	; 0x03
    1e3c:	34 81       	ldd	r19, Z+4	; 0x04
    1e3e:	25 81       	ldd	r18, Z+5	; 0x05
    1e40:	96 81       	ldd	r25, Z+6	; 0x06
    1e42:	87 81       	ldd	r24, Z+7	; 0x07
    1e44:	e8 e8       	ldi	r30, 0x88	; 136
    1e46:	f4 e5       	ldi	r31, 0x54	; 84
    1e48:	b0 83       	st	Z, r27
    1e4a:	a1 83       	std	Z+1, r26	; 0x01
    1e4c:	52 83       	std	Z+2, r21	; 0x02
    1e4e:	43 83       	std	Z+3, r20	; 0x03
    1e50:	34 83       	std	Z+4, r19	; 0x04
    1e52:	25 83       	std	Z+5, r18	; 0x05
    1e54:	96 83       	std	Z+6, r25	; 0x06
    1e56:	87 83       	std	Z+7, r24	; 0x07
    1e58:	e4 e6       	ldi	r30, 0x64	; 100
    1e5a:	f1 e0       	ldi	r31, 0x01	; 1
    1e5c:	a8 e8       	ldi	r26, 0x88	; 136
    1e5e:	b4 e5       	ldi	r27, 0x54	; 84
    1e60:	8d 91       	ld	r24, X+
    1e62:	81 93       	st	Z+, r24
    1e64:	ec 36       	cpi	r30, 0x6C	; 108
    1e66:	31 e0       	ldi	r19, 0x01	; 1
    1e68:	f3 07       	cpc	r31, r19
    1e6a:	d1 f7       	brne	.-12     	; 0x1e60 <tal_pib_set+0x1b6>
    1e6c:	80 e0       	ldi	r24, 0x00	; 0
    1e6e:	34 c0       	rjmp	.+104    	; 0x1ed8 <tal_pib_set+0x22e>
    1e70:	fb 01       	movw	r30, r22
    1e72:	80 81       	ld	r24, Z
    1e74:	80 93 9e 54 	sts	0x549E, r24	; 0x80549e <tal_pib+0x16>
    1e78:	ee e6       	ldi	r30, 0x6E	; 110
    1e7a:	f1 e0       	ldi	r31, 0x01	; 1
    1e7c:	90 81       	ld	r25, Z
    1e7e:	88 0f       	add	r24, r24
    1e80:	88 0f       	add	r24, r24
    1e82:	88 0f       	add	r24, r24
    1e84:	88 70       	andi	r24, 0x08	; 8
    1e86:	97 7f       	andi	r25, 0xF7	; 247
    1e88:	89 2b       	or	r24, r25
    1e8a:	80 83       	st	Z, r24
    1e8c:	80 e0       	ldi	r24, 0x00	; 0
    1e8e:	24 c0       	rjmp	.+72     	; 0x1ed8 <tal_pib_set+0x22e>
    1e90:	81 e8       	ldi	r24, 0x81	; 129
    1e92:	22 c0       	rjmp	.+68     	; 0x1ed8 <tal_pib_set+0x22e>
    1e94:	84 ef       	ldi	r24, 0xF4	; 244
    1e96:	20 c0       	rjmp	.+64     	; 0x1ed8 <tal_pib_set+0x22e>
    1e98:	86 e8       	ldi	r24, 0x86	; 134
    1e9a:	1e c0       	rjmp	.+60     	; 0x1ed8 <tal_pib_set+0x22e>
    1e9c:	88 ee       	ldi	r24, 0xE8	; 232
    1e9e:	1c c0       	rjmp	.+56     	; 0x1ed8 <tal_pib_set+0x22e>
    1ea0:	86 e8       	ldi	r24, 0x86	; 134
    1ea2:	1a c0       	rjmp	.+52     	; 0x1ed8 <tal_pib_set+0x22e>
    1ea4:	88 ee       	ldi	r24, 0xE8	; 232
    1ea6:	18 c0       	rjmp	.+48     	; 0x1ed8 <tal_pib_set+0x22e>
    1ea8:	80 93 9b 54 	sts	0x549B, r24	; 0x80549b <tal_pib+0x13>
    1eac:	e8 e4       	ldi	r30, 0x48	; 72
    1eae:	f1 e0       	ldi	r31, 0x01	; 1
    1eb0:	90 81       	ld	r25, Z
    1eb2:	90 7e       	andi	r25, 0xE0	; 224
    1eb4:	8f 71       	andi	r24, 0x1F	; 31
    1eb6:	89 2b       	or	r24, r25
    1eb8:	80 83       	st	Z, r24
    1eba:	80 e0       	ldi	r24, 0x00	; 0
    1ebc:	0d c0       	rjmp	.+26     	; 0x1ed8 <tal_pib_set+0x22e>
    1ebe:	88 81       	ld	r24, Y
    1ec0:	80 93 9b 54 	sts	0x549B, r24	; 0x80549b <tal_pib+0x13>
    1ec4:	e8 e4       	ldi	r30, 0x48	; 72
    1ec6:	f1 e0       	ldi	r31, 0x01	; 1
    1ec8:	90 81       	ld	r25, Z
    1eca:	90 7e       	andi	r25, 0xE0	; 224
    1ecc:	8f 71       	andi	r24, 0x1F	; 31
    1ece:	89 2b       	or	r24, r25
    1ed0:	80 83       	st	Z, r24
    1ed2:	86 e1       	ldi	r24, 0x16	; 22
    1ed4:	d8 d9       	rcall	.-3152   	; 0x1286 <set_trx_state>
    1ed6:	80 e0       	ldi	r24, 0x00	; 0
    1ed8:	df 91       	pop	r29
    1eda:	cf 91       	pop	r28
    1edc:	08 95       	ret

00001ede <__portable_avr_delay_cycles>:
    1ede:	04 c0       	rjmp	.+8      	; 0x1ee8 <__portable_avr_delay_cycles+0xa>
    1ee0:	61 50       	subi	r22, 0x01	; 1
    1ee2:	71 09       	sbc	r23, r1
    1ee4:	81 09       	sbc	r24, r1
    1ee6:	91 09       	sbc	r25, r1
    1ee8:	61 15       	cp	r22, r1
    1eea:	71 05       	cpc	r23, r1
    1eec:	81 05       	cpc	r24, r1
    1eee:	91 05       	cpc	r25, r1
    1ef0:	b9 f7       	brne	.-18     	; 0x1ee0 <__portable_avr_delay_cycles+0x2>
    1ef2:	08 95       	ret

00001ef4 <handle_received_frame_irq>:
    1ef4:	cf 92       	push	r12
    1ef6:	df 92       	push	r13
    1ef8:	ef 92       	push	r14
    1efa:	ff 92       	push	r15
    1efc:	0f 93       	push	r16
    1efe:	1f 93       	push	r17
    1f00:	cf 93       	push	r28
    1f02:	df 93       	push	r29
    1f04:	e0 91 7f 05 	lds	r30, 0x057F	; 0x80057f <tal_rx_buffer>
    1f08:	f0 91 80 05 	lds	r31, 0x0580	; 0x800580 <tal_rx_buffer+0x1>
    1f0c:	30 97       	sbiw	r30, 0x00	; 0
    1f0e:	71 f4       	brne	.+28     	; 0x1f2c <handle_received_frame_irq+0x38>
    1f10:	cc e4       	ldi	r28, 0x4C	; 76
    1f12:	d1 e0       	ldi	r29, 0x01	; 1
    1f14:	88 81       	ld	r24, Y
    1f16:	8f 77       	andi	r24, 0x7F	; 127
    1f18:	88 83       	st	Y, r24
    1f1a:	63 e0       	ldi	r22, 0x03	; 3
    1f1c:	70 e0       	ldi	r23, 0x00	; 0
    1f1e:	80 e0       	ldi	r24, 0x00	; 0
    1f20:	90 e0       	ldi	r25, 0x00	; 0
    1f22:	dd df       	rcall	.-70     	; 0x1ede <__portable_avr_delay_cycles>
    1f24:	88 81       	ld	r24, Y
    1f26:	80 68       	ori	r24, 0x80	; 128
    1f28:	88 83       	st	Y, r24
    1f2a:	48 c0       	rjmp	.+144    	; 0x1fbc <handle_received_frame_irq+0xc8>
    1f2c:	00 91 47 01 	lds	r16, 0x0147	; 0x800147 <__TEXT_REGION_LENGTH__+0x7c0147>
    1f30:	10 91 7b 01 	lds	r17, 0x017B	; 0x80017b <__TEXT_REGION_LENGTH__+0x7c017b>
    1f34:	11 23       	and	r17, r17
    1f36:	0c f4       	brge	.+2      	; 0x1f3a <handle_received_frame_irq+0x46>
    1f38:	41 c0       	rjmp	.+130    	; 0x1fbc <handle_received_frame_irq+0xc8>
    1f3a:	e0 80       	ld	r14, Z
    1f3c:	f1 80       	ldd	r15, Z+1	; 0x01
    1f3e:	82 e0       	ldi	r24, 0x02	; 2
    1f40:	81 0f       	add	r24, r17
    1f42:	eb e8       	ldi	r30, 0x8B	; 139
    1f44:	f0 e0       	ldi	r31, 0x00	; 0
    1f46:	e8 1b       	sub	r30, r24
    1f48:	f1 09       	sbc	r31, r1
    1f4a:	e7 01       	movw	r28, r14
    1f4c:	ce 0f       	add	r28, r30
    1f4e:	df 1f       	adc	r29, r31
    1f50:	c1 2e       	mov	r12, r17
    1f52:	d1 2c       	mov	r13, r1
    1f54:	a6 01       	movw	r20, r12
    1f56:	4f 5f       	subi	r20, 0xFF	; 255
    1f58:	5f 4f       	sbci	r21, 0xFF	; 255
    1f5a:	60 e8       	ldi	r22, 0x80	; 128
    1f5c:	71 e0       	ldi	r23, 0x01	; 1
    1f5e:	ce 01       	movw	r24, r28
    1f60:	92 d7       	rcall	.+3876   	; 0x2e86 <memcpy>
    1f62:	fe 01       	movw	r30, r28
    1f64:	12 93       	st	-Z, r17
    1f66:	d7 01       	movw	r26, r14
    1f68:	18 96       	adiw	r26, 0x08	; 8
    1f6a:	fc 93       	st	X, r31
    1f6c:	ee 93       	st	-X, r30
    1f6e:	17 97       	sbiw	r26, 0x07	; 7
    1f70:	ec 0d       	add	r30, r12
    1f72:	fd 1d       	adc	r31, r13
    1f74:	02 83       	std	Z+2, r16	; 0x02
    1f76:	60 91 7f 05 	lds	r22, 0x057F	; 0x80057f <tal_rx_buffer>
    1f7a:	70 91 80 05 	lds	r23, 0x0580	; 0x800580 <tal_rx_buffer+0x1>
    1f7e:	81 e8       	ldi	r24, 0x81	; 129
    1f80:	94 e5       	ldi	r25, 0x54	; 84
    1f82:	2d d9       	rcall	.-3494   	; 0x11de <qmm_queue_append>
    1f84:	8b e8       	ldi	r24, 0x8B	; 139
    1f86:	93 d8       	rcall	.-3802   	; 0x10ae <bmm_buffer_alloc>
    1f88:	90 93 80 05 	sts	0x0580, r25	; 0x800580 <tal_rx_buffer+0x1>
    1f8c:	80 93 7f 05 	sts	0x057F, r24	; 0x80057f <tal_rx_buffer>
    1f90:	89 2b       	or	r24, r25
    1f92:	21 f4       	brne	.+8      	; 0x1f9c <handle_received_frame_irq+0xa8>
    1f94:	81 e0       	ldi	r24, 0x01	; 1
    1f96:	80 93 80 54 	sts	0x5480, r24	; 0x805480 <tal_rx_on_required>
    1f9a:	0d c0       	rjmp	.+26     	; 0x1fb6 <handle_received_frame_irq+0xc2>
    1f9c:	cc e4       	ldi	r28, 0x4C	; 76
    1f9e:	d1 e0       	ldi	r29, 0x01	; 1
    1fa0:	88 81       	ld	r24, Y
    1fa2:	8f 77       	andi	r24, 0x7F	; 127
    1fa4:	88 83       	st	Y, r24
    1fa6:	63 e0       	ldi	r22, 0x03	; 3
    1fa8:	70 e0       	ldi	r23, 0x00	; 0
    1faa:	80 e0       	ldi	r24, 0x00	; 0
    1fac:	90 e0       	ldi	r25, 0x00	; 0
    1fae:	97 df       	rcall	.-210    	; 0x1ede <__portable_avr_delay_cycles>
    1fb0:	88 81       	ld	r24, Y
    1fb2:	80 68       	ori	r24, 0x80	; 128
    1fb4:	88 83       	st	Y, r24
    1fb6:	80 e4       	ldi	r24, 0x40	; 64
    1fb8:	80 93 4f 01 	sts	0x014F, r24	; 0x80014f <__TEXT_REGION_LENGTH__+0x7c014f>
    1fbc:	df 91       	pop	r29
    1fbe:	cf 91       	pop	r28
    1fc0:	1f 91       	pop	r17
    1fc2:	0f 91       	pop	r16
    1fc4:	ff 90       	pop	r15
    1fc6:	ef 90       	pop	r14
    1fc8:	df 90       	pop	r13
    1fca:	cf 90       	pop	r12
    1fcc:	08 95       	ret

00001fce <process_incoming_frame>:
    1fce:	cf 93       	push	r28
    1fd0:	df 93       	push	r29
    1fd2:	ac 01       	movw	r20, r24
    1fd4:	fc 01       	movw	r30, r24
    1fd6:	c0 81       	ld	r28, Z
    1fd8:	d1 81       	ldd	r29, Z+1	; 0x01
    1fda:	af 81       	ldd	r26, Y+7	; 0x07
    1fdc:	b8 85       	ldd	r27, Y+8	; 0x08
    1fde:	8c 91       	ld	r24, X
    1fe0:	80 93 a8 54 	sts	0x54A8, r24	; 0x8054a8 <last_frame_length>
    1fe4:	e8 2f       	mov	r30, r24
    1fe6:	f0 e0       	ldi	r31, 0x00	; 0
    1fe8:	31 96       	adiw	r30, 0x01	; 1
    1fea:	ea 0f       	add	r30, r26
    1fec:	fb 1f       	adc	r31, r27
    1fee:	80 81       	ld	r24, Z
    1ff0:	31 81       	ldd	r19, Z+1	; 0x01
    1ff2:	3d 33       	cpi	r19, 0x3D	; 61
    1ff4:	20 f4       	brcc	.+8      	; 0x1ffe <process_incoming_frame+0x30>
    1ff6:	31 11       	cpse	r19, r1
    1ff8:	03 c0       	rjmp	.+6      	; 0x2000 <__EEPROM_REGION_LENGTH__>
    1ffa:	31 e0       	ldi	r19, 0x01	; 1
    1ffc:	01 c0       	rjmp	.+2      	; 0x2000 <__EEPROM_REGION_LENGTH__>
    1ffe:	3c e3       	ldi	r19, 0x3C	; 60
    2000:	82 95       	swap	r24
    2002:	86 95       	lsr	r24
    2004:	86 95       	lsr	r24
    2006:	83 70       	andi	r24, 0x03	; 3
    2008:	2f ef       	ldi	r18, 0xFF	; 255
    200a:	82 9f       	mul	r24, r18
    200c:	c0 01       	movw	r24, r0
    200e:	11 24       	eor	r1, r1
    2010:	38 9f       	mul	r19, r24
    2012:	b0 01       	movw	r22, r0
    2014:	39 9f       	mul	r19, r25
    2016:	70 0d       	add	r23, r0
    2018:	11 24       	eor	r1, r1
    201a:	9b 01       	movw	r18, r22
    201c:	a3 e8       	ldi	r26, 0x83	; 131
    201e:	bd e2       	ldi	r27, 0x2D	; 45
    2020:	ac d6       	rcall	.+3416   	; 0x2d7a <__umulhisi3>
    2022:	96 95       	lsr	r25
    2024:	87 95       	ror	r24
    2026:	92 95       	swap	r25
    2028:	82 95       	swap	r24
    202a:	8f 70       	andi	r24, 0x0F	; 15
    202c:	89 27       	eor	r24, r25
    202e:	9f 70       	andi	r25, 0x0F	; 15
    2030:	89 27       	eor	r24, r25
    2032:	8f 3f       	cpi	r24, 0xFF	; 255
    2034:	91 05       	cpc	r25, r1
    2036:	11 f0       	breq	.+4      	; 0x203c <__EEPROM_REGION_LENGTH__+0x3c>
    2038:	08 f0       	brcs	.+2      	; 0x203c <__EEPROM_REGION_LENGTH__+0x3c>
    203a:	8f ef       	ldi	r24, 0xFF	; 255
    203c:	80 83       	st	Z, r24
    203e:	5a 83       	std	Y+2, r21	; 0x02
    2040:	49 83       	std	Y+1, r20	; 0x01
    2042:	ce 01       	movw	r24, r28
    2044:	2e d6       	rcall	.+3164   	; 0x2ca2 <tal_rx_frame_cb>
    2046:	df 91       	pop	r29
    2048:	cf 91       	pop	r28
    204a:	08 95       	ret

0000204c <tal_rx_enable>:
    204c:	90 91 ac 54 	lds	r25, 0x54AC	; 0x8054ac <tal_state>
    2050:	91 11       	cpse	r25, r1
    2052:	16 c0       	rjmp	.+44     	; 0x2080 <tal_rx_enable+0x34>
    2054:	88 30       	cpi	r24, 0x08	; 8
    2056:	29 f4       	brne	.+10     	; 0x2062 <tal_rx_enable+0x16>
    2058:	16 d9       	rcall	.-3540   	; 0x1286 <set_trx_state>
    205a:	10 92 80 54 	sts	0x5480, r1	; 0x805480 <tal_rx_on_required>
    205e:	88 e0       	ldi	r24, 0x08	; 8
    2060:	08 95       	ret
    2062:	80 91 7f 05 	lds	r24, 0x057F	; 0x80057f <tal_rx_buffer>
    2066:	90 91 80 05 	lds	r25, 0x0580	; 0x800580 <tal_rx_buffer+0x1>
    206a:	89 2b       	or	r24, r25
    206c:	21 f0       	breq	.+8      	; 0x2076 <tal_rx_enable+0x2a>
    206e:	86 e1       	ldi	r24, 0x16	; 22
    2070:	0a d9       	rcall	.-3564   	; 0x1286 <set_trx_state>
    2072:	86 e0       	ldi	r24, 0x06	; 6
    2074:	08 95       	ret
    2076:	81 e0       	ldi	r24, 0x01	; 1
    2078:	80 93 80 54 	sts	0x5480, r24	; 0x805480 <tal_rx_on_required>
    207c:	86 e0       	ldi	r24, 0x06	; 6
    207e:	08 95       	ret
    2080:	86 e8       	ldi	r24, 0x86	; 134
    2082:	08 95       	ret

00002084 <__portable_avr_delay_cycles>:
    2084:	04 c0       	rjmp	.+8      	; 0x208e <__portable_avr_delay_cycles+0xa>
    2086:	61 50       	subi	r22, 0x01	; 1
    2088:	71 09       	sbc	r23, r1
    208a:	81 09       	sbc	r24, r1
    208c:	91 09       	sbc	r25, r1
    208e:	61 15       	cp	r22, r1
    2090:	71 05       	cpc	r23, r1
    2092:	81 05       	cpc	r24, r1
    2094:	91 05       	cpc	r25, r1
    2096:	b9 f7       	brne	.-18     	; 0x2086 <__portable_avr_delay_cycles+0x2>
    2098:	08 95       	ret

0000209a <tx_done_handling>:
    209a:	10 92 ac 54 	sts	0x54AC, r1	; 0x8054ac <tal_state>
    209e:	80 91 89 05 	lds	r24, 0x0589	; 0x800589 <trx_trac_status>
    20a2:	83 30       	cpi	r24, 0x03	; 3
    20a4:	69 f0       	breq	.+26     	; 0x20c0 <tx_done_handling+0x26>
    20a6:	28 f4       	brcc	.+10     	; 0x20b2 <tx_done_handling+0x18>
    20a8:	88 23       	and	r24, r24
    20aa:	91 f0       	breq	.+36     	; 0x20d0 <tx_done_handling+0x36>
    20ac:	81 30       	cpi	r24, 0x01	; 1
    20ae:	31 f0       	breq	.+12     	; 0x20bc <tx_done_handling+0x22>
    20b0:	0d c0       	rjmp	.+26     	; 0x20cc <tx_done_handling+0x32>
    20b2:	85 30       	cpi	r24, 0x05	; 5
    20b4:	39 f0       	breq	.+14     	; 0x20c4 <tx_done_handling+0x2a>
    20b6:	87 30       	cpi	r24, 0x07	; 7
    20b8:	39 f0       	breq	.+14     	; 0x20c8 <tx_done_handling+0x2e>
    20ba:	08 c0       	rjmp	.+16     	; 0x20cc <tx_done_handling+0x32>
    20bc:	87 e8       	ldi	r24, 0x87	; 135
    20be:	09 c0       	rjmp	.+18     	; 0x20d2 <tx_done_handling+0x38>
    20c0:	81 ee       	ldi	r24, 0xE1	; 225
    20c2:	07 c0       	rjmp	.+14     	; 0x20d2 <tx_done_handling+0x38>
    20c4:	89 ee       	ldi	r24, 0xE9	; 233
    20c6:	05 c0       	rjmp	.+10     	; 0x20d2 <tx_done_handling+0x38>
    20c8:	85 e8       	ldi	r24, 0x85	; 133
    20ca:	03 c0       	rjmp	.+6      	; 0x20d2 <tx_done_handling+0x38>
    20cc:	85 e8       	ldi	r24, 0x85	; 133
    20ce:	01 c0       	rjmp	.+2      	; 0x20d2 <tx_done_handling+0x38>
    20d0:	80 e0       	ldi	r24, 0x00	; 0
    20d2:	60 91 86 54 	lds	r22, 0x5486	; 0x805486 <mac_frame_ptr>
    20d6:	70 91 87 54 	lds	r23, 0x5487	; 0x805487 <mac_frame_ptr+0x1>
    20da:	e0 c5       	rjmp	.+3008   	; 0x2c9c <tal_tx_frame_done_cb>
    20dc:	08 95       	ret

000020de <send_frame>:
    20de:	1f 93       	push	r17
    20e0:	cf 93       	push	r28
    20e2:	df 93       	push	r29
    20e4:	1f 92       	push	r1
    20e6:	cd b7       	in	r28, 0x3d	; 61
    20e8:	de b7       	in	r29, 0x3e	; 62
    20ea:	18 2f       	mov	r17, r24
    20ec:	66 23       	and	r22, r22
    20ee:	81 f0       	breq	.+32     	; 0x2110 <send_frame+0x32>
    20f0:	ec e6       	ldi	r30, 0x6C	; 108
    20f2:	f1 e0       	ldi	r31, 0x01	; 1
    20f4:	20 81       	ld	r18, Z
    20f6:	90 91 a4 54 	lds	r25, 0x54A4	; 0x8054a4 <tal_pib+0x1c>
    20fa:	30 e1       	ldi	r19, 0x10	; 16
    20fc:	93 9f       	mul	r25, r19
    20fe:	c0 01       	movw	r24, r0
    2100:	11 24       	eor	r1, r1
    2102:	92 2f       	mov	r25, r18
    2104:	9f 70       	andi	r25, 0x0F	; 15
    2106:	89 2b       	or	r24, r25
    2108:	80 83       	st	Z, r24
    210a:	12 30       	cpi	r17, 0x02	; 2
    210c:	e0 f4       	brcc	.+56     	; 0x2146 <send_frame+0x68>
    210e:	08 c0       	rjmp	.+16     	; 0x2120 <send_frame+0x42>
    2110:	ec e6       	ldi	r30, 0x6C	; 108
    2112:	f1 e0       	ldi	r31, 0x01	; 1
    2114:	80 81       	ld	r24, Z
    2116:	8f 70       	andi	r24, 0x0F	; 15
    2118:	80 83       	st	Z, r24
    211a:	12 30       	cpi	r17, 0x02	; 2
    211c:	a0 f4       	brcc	.+40     	; 0x2146 <send_frame+0x68>
    211e:	0d c0       	rjmp	.+26     	; 0x213a <send_frame+0x5c>
    2120:	ec e6       	ldi	r30, 0x6C	; 108
    2122:	f1 e0       	ldi	r31, 0x01	; 1
    2124:	80 81       	ld	r24, Z
    2126:	90 91 9c 54 	lds	r25, 0x549C	; 0x80549c <tal_pib+0x14>
    212a:	99 0f       	add	r25, r25
    212c:	9e 70       	andi	r25, 0x0E	; 14
    212e:	81 7f       	andi	r24, 0xF1	; 241
    2130:	89 2b       	or	r24, r25
    2132:	80 83       	st	Z, r24
    2134:	10 92 6f 01 	sts	0x016F, r1	; 0x80016f <__TEXT_REGION_LENGTH__+0x7c016f>
    2138:	1a c0       	rjmp	.+52     	; 0x216e <send_frame+0x90>
    213a:	ec e6       	ldi	r30, 0x6C	; 108
    213c:	f1 e0       	ldi	r31, 0x01	; 1
    213e:	80 81       	ld	r24, Z
    2140:	8e 60       	ori	r24, 0x0E	; 14
    2142:	80 83       	st	Z, r24
    2144:	14 c0       	rjmp	.+40     	; 0x216e <send_frame+0x90>
    2146:	e8 e8       	ldi	r30, 0x88	; 136
    2148:	f4 e5       	ldi	r31, 0x54	; 84
    214a:	83 8d       	ldd	r24, Z+27	; 0x1b
    214c:	20 e1       	ldi	r18, 0x10	; 16
    214e:	82 9f       	mul	r24, r18
    2150:	c0 01       	movw	r24, r0
    2152:	11 24       	eor	r1, r1
    2154:	95 89       	ldd	r25, Z+21	; 0x15
    2156:	89 2b       	or	r24, r25
    2158:	80 93 6f 01 	sts	0x016F, r24	; 0x80016f <__TEXT_REGION_LENGTH__+0x7c016f>
    215c:	ac e6       	ldi	r26, 0x6C	; 108
    215e:	b1 e0       	ldi	r27, 0x01	; 1
    2160:	8c 91       	ld	r24, X
    2162:	94 89       	ldd	r25, Z+20	; 0x14
    2164:	99 0f       	add	r25, r25
    2166:	9e 70       	andi	r25, 0x0E	; 14
    2168:	81 7f       	andi	r24, 0xF1	; 241
    216a:	89 2b       	or	r24, r25
    216c:	8c 93       	st	X, r24
    216e:	89 e1       	ldi	r24, 0x19	; 25
    2170:	8a d8       	rcall	.-3820   	; 0x1286 <set_trx_state>
    2172:	89 31       	cpi	r24, 0x19	; 25
    2174:	e1 f7       	brne	.-8      	; 0x216e <send_frame+0x90>
    2176:	11 30       	cpi	r17, 0x01	; 1
    2178:	a1 f4       	brne	.+40     	; 0x21a2 <send_frame+0xc4>
    217a:	80 91 a8 54 	lds	r24, 0x54A8	; 0x8054a8 <last_frame_length>
    217e:	83 31       	cpi	r24, 0x13	; 19
    2180:	40 f0       	brcs	.+16     	; 0x2192 <send_frame+0xb4>
    2182:	61 e0       	ldi	r22, 0x01	; 1
    2184:	73 e0       	ldi	r23, 0x03	; 3
    2186:	80 e0       	ldi	r24, 0x00	; 0
    2188:	90 e0       	ldi	r25, 0x00	; 0
    218a:	7c df       	rcall	.-264    	; 0x2084 <__portable_avr_delay_cycles>
    218c:	10 92 a8 54 	sts	0x54A8, r1	; 0x8054a8 <last_frame_length>
    2190:	0d c0       	rjmp	.+26     	; 0x21ac <send_frame+0xce>
    2192:	6b ea       	ldi	r22, 0xAB	; 171
    2194:	70 e0       	ldi	r23, 0x00	; 0
    2196:	80 e0       	ldi	r24, 0x00	; 0
    2198:	90 e0       	ldi	r25, 0x00	; 0
    219a:	74 df       	rcall	.-280    	; 0x2084 <__portable_avr_delay_cycles>
    219c:	10 92 a8 54 	sts	0x54A8, r1	; 0x8054a8 <last_frame_length>
    21a0:	05 c0       	rjmp	.+10     	; 0x21ac <send_frame+0xce>
    21a2:	6c e0       	ldi	r22, 0x0C	; 12
    21a4:	70 e0       	ldi	r23, 0x00	; 0
    21a6:	80 e0       	ldi	r24, 0x00	; 0
    21a8:	90 e0       	ldi	r25, 0x00	; 0
    21aa:	6c df       	rcall	.-296    	; 0x2084 <__portable_avr_delay_cycles>
    21ac:	8f b7       	in	r24, 0x3f	; 63
    21ae:	89 83       	std	Y+1, r24	; 0x01
    21b0:	f8 94       	cli
    21b2:	19 81       	ldd	r17, Y+1	; 0x01
    21b4:	e9 e3       	ldi	r30, 0x39	; 57
    21b6:	f1 e0       	ldi	r31, 0x01	; 1
    21b8:	80 81       	ld	r24, Z
    21ba:	82 60       	ori	r24, 0x02	; 2
    21bc:	80 83       	st	Z, r24
    21be:	00 00       	nop
    21c0:	00 00       	nop
    21c2:	80 81       	ld	r24, Z
    21c4:	8d 7f       	andi	r24, 0xFD	; 253
    21c6:	80 83       	st	Z, r24
    21c8:	60 91 a9 54 	lds	r22, 0x54A9	; 0x8054a9 <tal_frame_to_tx>
    21cc:	70 91 aa 54 	lds	r23, 0x54AA	; 0x8054aa <tal_frame_to_tx+0x1>
    21d0:	fb 01       	movw	r30, r22
    21d2:	40 81       	ld	r20, Z
    21d4:	50 e0       	ldi	r21, 0x00	; 0
    21d6:	41 50       	subi	r20, 0x01	; 1
    21d8:	51 09       	sbc	r21, r1
    21da:	80 e8       	ldi	r24, 0x80	; 128
    21dc:	91 e0       	ldi	r25, 0x01	; 1
    21de:	53 d6       	rcall	.+3238   	; 0x2e86 <memcpy>
    21e0:	81 e0       	ldi	r24, 0x01	; 1
    21e2:	80 93 ac 54 	sts	0x54AC, r24	; 0x8054ac <tal_state>
    21e6:	1f bf       	out	0x3f, r17	; 63
    21e8:	0f 90       	pop	r0
    21ea:	df 91       	pop	r29
    21ec:	cf 91       	pop	r28
    21ee:	1f 91       	pop	r17
    21f0:	08 95       	ret

000021f2 <tal_tx_frame>:
    21f2:	fc 01       	movw	r30, r24
    21f4:	90 91 ac 54 	lds	r25, 0x54AC	; 0x8054ac <tal_state>
    21f8:	91 11       	cpse	r25, r1
    21fa:	16 c0       	rjmp	.+44     	; 0x2228 <tal_tx_frame+0x36>
    21fc:	f0 93 87 54 	sts	0x5487, r31	; 0x805487 <mac_frame_ptr+0x1>
    2200:	e0 93 86 54 	sts	0x5486, r30	; 0x805486 <mac_frame_ptr>
    2204:	07 80       	ldd	r0, Z+7	; 0x07
    2206:	f0 85       	ldd	r31, Z+8	; 0x08
    2208:	e0 2d       	mov	r30, r0
    220a:	f0 93 aa 54 	sts	0x54AA, r31	; 0x8054aa <tal_frame_to_tx+0x1>
    220e:	e0 93 a9 54 	sts	0x54A9, r30	; 0x8054a9 <tal_frame_to_tx>
    2212:	80 81       	ld	r24, Z
    2214:	81 50       	subi	r24, 0x01	; 1
    2216:	80 93 a8 54 	sts	0x54A8, r24	; 0x8054a8 <last_frame_length>
    221a:	ef 2b       	or	r30, r31
    221c:	39 f0       	breq	.+14     	; 0x222c <tal_tx_frame+0x3a>
    221e:	86 2f       	mov	r24, r22
    2220:	64 2f       	mov	r22, r20
    2222:	5d df       	rcall	.-326    	; 0x20de <send_frame>
    2224:	80 e0       	ldi	r24, 0x00	; 0
    2226:	08 95       	ret
    2228:	86 e8       	ldi	r24, 0x86	; 134
    222a:	08 95       	ret
    222c:	88 ee       	ldi	r24, 0xE8	; 232
    222e:	08 95       	ret

00002230 <handle_tx_end_irq>:
    2230:	80 91 ac 54 	lds	r24, 0x54AC	; 0x8054ac <tal_state>
    2234:	81 30       	cpi	r24, 0x01	; 1
    2236:	c1 f4       	brne	.+48     	; 0x2268 <handle_tx_end_irq+0x38>
    2238:	80 91 42 01 	lds	r24, 0x0142	; 0x800142 <__TEXT_REGION_LENGTH__+0x7c0142>
    223c:	82 95       	swap	r24
    223e:	86 95       	lsr	r24
    2240:	87 70       	andi	r24, 0x07	; 7
    2242:	80 93 89 05 	sts	0x0589, r24	; 0x800589 <trx_trac_status>
    2246:	82 e0       	ldi	r24, 0x02	; 2
    2248:	80 93 ac 54 	sts	0x54AC, r24	; 0x8054ac <tal_state>
    224c:	80 91 7f 05 	lds	r24, 0x057F	; 0x80057f <tal_rx_buffer>
    2250:	90 91 80 05 	lds	r25, 0x0580	; 0x800580 <tal_rx_buffer+0x1>
    2254:	89 2b       	or	r24, r25
    2256:	31 f4       	brne	.+12     	; 0x2264 <handle_tx_end_irq+0x34>
    2258:	89 e0       	ldi	r24, 0x09	; 9
    225a:	15 d8       	rcall	.-4054   	; 0x1286 <set_trx_state>
    225c:	81 e0       	ldi	r24, 0x01	; 1
    225e:	80 93 80 54 	sts	0x5480, r24	; 0x805480 <tal_rx_on_required>
    2262:	08 95       	ret
    2264:	86 e1       	ldi	r24, 0x16	; 22
    2266:	0f c8       	rjmp	.-4066   	; 0x1286 <set_trx_state>
    2268:	08 95       	ret

0000226a <tal_ant_div_config>:
    226a:	88 23       	and	r24, r24
    226c:	29 f1       	breq	.+74     	; 0x22b8 <tal_ant_div_config+0x4e>
    226e:	ed e4       	ldi	r30, 0x4D	; 77
    2270:	f1 e0       	ldi	r31, 0x01	; 1
    2272:	80 81       	ld	r24, Z
    2274:	8c 7f       	andi	r24, 0xFC	; 252
    2276:	80 83       	st	Z, r24
    2278:	80 81       	ld	r24, Z
    227a:	88 60       	ori	r24, 0x08	; 8
    227c:	80 83       	st	Z, r24
    227e:	aa e4       	ldi	r26, 0x4A	; 74
    2280:	b1 e0       	ldi	r27, 0x01	; 1
    2282:	8c 91       	ld	r24, X
    2284:	80 7f       	andi	r24, 0xF0	; 240
    2286:	83 60       	ori	r24, 0x03	; 3
    2288:	8c 93       	st	X, r24
    228a:	80 81       	ld	r24, Z
    228c:	84 60       	ori	r24, 0x04	; 4
    228e:	80 83       	st	Z, r24
    2290:	80 81       	ld	r24, Z
    2292:	83 70       	andi	r24, 0x03	; 3
    2294:	09 f0       	breq	.+2      	; 0x2298 <tal_ant_div_config+0x2e>
    2296:	54 c0       	rjmp	.+168    	; 0x2340 <tal_ant_div_config+0xd6>
    2298:	80 91 4d 01 	lds	r24, 0x014D	; 0x80014d <__TEXT_REGION_LENGTH__+0x7c014d>
    229c:	83 ff       	sbrs	r24, 3
    229e:	52 c0       	rjmp	.+164    	; 0x2344 <tal_ant_div_config+0xda>
    22a0:	80 91 4d 01 	lds	r24, 0x014D	; 0x80014d <__TEXT_REGION_LENGTH__+0x7c014d>
    22a4:	82 ff       	sbrs	r24, 2
    22a6:	50 c0       	rjmp	.+160    	; 0x2348 <tal_ant_div_config+0xde>
    22a8:	80 91 4a 01 	lds	r24, 0x014A	; 0x80014a <__TEXT_REGION_LENGTH__+0x7c014a>
    22ac:	8f 70       	andi	r24, 0x0F	; 15
    22ae:	83 30       	cpi	r24, 0x03	; 3
    22b0:	09 f0       	breq	.+2      	; 0x22b4 <tal_ant_div_config+0x4a>
    22b2:	4c c0       	rjmp	.+152    	; 0x234c <tal_ant_div_config+0xe2>
    22b4:	80 e0       	ldi	r24, 0x00	; 0
    22b6:	08 95       	ret
    22b8:	ed e4       	ldi	r30, 0x4D	; 77
    22ba:	f1 e0       	ldi	r31, 0x01	; 1
    22bc:	80 81       	ld	r24, Z
    22be:	87 7f       	andi	r24, 0xF7	; 247
    22c0:	80 83       	st	Z, r24
    22c2:	aa e4       	ldi	r26, 0x4A	; 74
    22c4:	b1 e0       	ldi	r27, 0x01	; 1
    22c6:	8c 91       	ld	r24, X
    22c8:	80 7f       	andi	r24, 0xF0	; 240
    22ca:	87 60       	ori	r24, 0x07	; 7
    22cc:	8c 93       	st	X, r24
    22ce:	80 81       	ld	r24, Z
    22d0:	84 60       	ori	r24, 0x04	; 4
    22d2:	80 83       	st	Z, r24
    22d4:	61 30       	cpi	r22, 0x01	; 1
    22d6:	31 f4       	brne	.+12     	; 0x22e4 <tal_ant_div_config+0x7a>
    22d8:	80 81       	ld	r24, Z
    22da:	8c 7f       	andi	r24, 0xFC	; 252
    22dc:	81 60       	ori	r24, 0x01	; 1
    22de:	80 83       	st	Z, r24
    22e0:	85 e8       	ldi	r24, 0x85	; 133
    22e2:	17 c0       	rjmp	.+46     	; 0x2312 <tal_ant_div_config+0xa8>
    22e4:	62 30       	cpi	r22, 0x02	; 2
    22e6:	41 f4       	brne	.+16     	; 0x22f8 <tal_ant_div_config+0x8e>
    22e8:	ed e4       	ldi	r30, 0x4D	; 77
    22ea:	f1 e0       	ldi	r31, 0x01	; 1
    22ec:	80 81       	ld	r24, Z
    22ee:	8c 7f       	andi	r24, 0xFC	; 252
    22f0:	82 60       	ori	r24, 0x02	; 2
    22f2:	80 83       	st	Z, r24
    22f4:	85 e8       	ldi	r24, 0x85	; 133
    22f6:	0d c0       	rjmp	.+26     	; 0x2312 <tal_ant_div_config+0xa8>
    22f8:	66 23       	and	r22, r22
    22fa:	11 f0       	breq	.+4      	; 0x2300 <tal_ant_div_config+0x96>
    22fc:	63 30       	cpi	r22, 0x03	; 3
    22fe:	41 f4       	brne	.+16     	; 0x2310 <tal_ant_div_config+0xa6>
    2300:	ed e4       	ldi	r30, 0x4D	; 77
    2302:	f1 e0       	ldi	r31, 0x01	; 1
    2304:	80 81       	ld	r24, Z
    2306:	8c 7f       	andi	r24, 0xFC	; 252
    2308:	80 83       	st	Z, r24
    230a:	85 e8       	ldi	r24, 0x85	; 133
    230c:	60 e0       	ldi	r22, 0x00	; 0
    230e:	01 c0       	rjmp	.+2      	; 0x2312 <tal_ant_div_config+0xa8>
    2310:	88 ee       	ldi	r24, 0xE8	; 232
    2312:	20 91 4d 01 	lds	r18, 0x014D	; 0x80014d <__TEXT_REGION_LENGTH__+0x7c014d>
    2316:	23 70       	andi	r18, 0x03	; 3
    2318:	30 e0       	ldi	r19, 0x00	; 0
    231a:	70 e0       	ldi	r23, 0x00	; 0
    231c:	26 17       	cp	r18, r22
    231e:	37 07       	cpc	r19, r23
    2320:	b9 f4       	brne	.+46     	; 0x2350 <tal_ant_div_config+0xe6>
    2322:	90 91 4d 01 	lds	r25, 0x014D	; 0x80014d <__TEXT_REGION_LENGTH__+0x7c014d>
    2326:	93 fd       	sbrc	r25, 3
    2328:	15 c0       	rjmp	.+42     	; 0x2354 <tal_ant_div_config+0xea>
    232a:	90 91 4d 01 	lds	r25, 0x014D	; 0x80014d <__TEXT_REGION_LENGTH__+0x7c014d>
    232e:	92 fd       	sbrc	r25, 2
    2330:	13 c0       	rjmp	.+38     	; 0x2358 <tal_ant_div_config+0xee>
    2332:	90 91 4a 01 	lds	r25, 0x014A	; 0x80014a <__TEXT_REGION_LENGTH__+0x7c014a>
    2336:	9f 70       	andi	r25, 0x0F	; 15
    2338:	93 30       	cpi	r25, 0x03	; 3
    233a:	79 f4       	brne	.+30     	; 0x235a <tal_ant_div_config+0xf0>
    233c:	80 e0       	ldi	r24, 0x00	; 0
    233e:	08 95       	ret
    2340:	85 e8       	ldi	r24, 0x85	; 133
    2342:	08 95       	ret
    2344:	85 e8       	ldi	r24, 0x85	; 133
    2346:	08 95       	ret
    2348:	85 e8       	ldi	r24, 0x85	; 133
    234a:	08 95       	ret
    234c:	85 e8       	ldi	r24, 0x85	; 133
    234e:	08 95       	ret
    2350:	85 e8       	ldi	r24, 0x85	; 133
    2352:	08 95       	ret
    2354:	85 e8       	ldi	r24, 0x85	; 133
    2356:	08 95       	ret
    2358:	85 e8       	ldi	r24, 0x85	; 133
    235a:	08 95       	ret

0000235c <tfa_pib_set>:
    235c:	81 11       	cpse	r24, r1
    235e:	24 c0       	rjmp	.+72     	; 0x23a8 <tfa_pib_set+0x4c>
    2360:	fb 01       	movw	r30, r22
    2362:	80 81       	ld	r24, Z
    2364:	80 3d       	cpi	r24, 0xD0	; 208
    2366:	2c f0       	brlt	.+10     	; 0x2372 <tfa_pib_set+0x16>
    2368:	8f ec       	ldi	r24, 0xCF	; 207
    236a:	80 93 8a 05 	sts	0x058A, r24	; 0x80058a <tfa_pib_rx_sens>
    236e:	6f e0       	ldi	r22, 0x0F	; 15
    2370:	12 c0       	rjmp	.+36     	; 0x2396 <tfa_pib_set+0x3a>
    2372:	87 3a       	cpi	r24, 0xA7	; 167
    2374:	2c f4       	brge	.+10     	; 0x2380 <tfa_pib_set+0x24>
    2376:	86 ea       	ldi	r24, 0xA6	; 166
    2378:	80 93 8a 05 	sts	0x058A, r24	; 0x80058a <tfa_pib_rx_sens>
    237c:	60 e0       	ldi	r22, 0x00	; 0
    237e:	0b c0       	rjmp	.+22     	; 0x2396 <tfa_pib_set+0x3a>
    2380:	80 93 8a 05 	sts	0x058A, r24	; 0x80058a <tfa_pib_rx_sens>
    2384:	08 2e       	mov	r0, r24
    2386:	00 0c       	add	r0, r0
    2388:	99 0b       	sbc	r25, r25
    238a:	86 5a       	subi	r24, 0xA6	; 166
    238c:	9f 4f       	sbci	r25, 0xFF	; 255
    238e:	63 e0       	ldi	r22, 0x03	; 3
    2390:	70 e0       	ldi	r23, 0x00	; 0
    2392:	b6 d4       	rcall	.+2412   	; 0x2d00 <__divmodhi4>
    2394:	6f 5f       	subi	r22, 0xFF	; 255
    2396:	e5 e5       	ldi	r30, 0x55	; 85
    2398:	f1 e0       	ldi	r31, 0x01	; 1
    239a:	80 81       	ld	r24, Z
    239c:	80 7f       	andi	r24, 0xF0	; 240
    239e:	6f 70       	andi	r22, 0x0F	; 15
    23a0:	68 2b       	or	r22, r24
    23a2:	60 83       	st	Z, r22
    23a4:	80 e0       	ldi	r24, 0x00	; 0
    23a6:	08 95       	ret
    23a8:	84 ef       	ldi	r24, 0xF4	; 244
    23aa:	08 95       	ret

000023ac <tfa_init>:
    23ac:	86 ea       	ldi	r24, 0xA6	; 166
    23ae:	80 93 8a 05 	sts	0x058A, r24	; 0x80058a <tfa_pib_rx_sens>
    23b2:	6a e8       	ldi	r22, 0x8A	; 138
    23b4:	75 e0       	ldi	r23, 0x05	; 5
    23b6:	80 e0       	ldi	r24, 0x00	; 0
    23b8:	d1 df       	rcall	.-94     	; 0x235c <tfa_pib_set>
    23ba:	61 e0       	ldi	r22, 0x01	; 1
    23bc:	80 e0       	ldi	r24, 0x00	; 0
    23be:	0e 94 5c 06 	call	0xcb8	; 0xcb8 <sysclk_enable_module>
    23c2:	60 e1       	ldi	r22, 0x10	; 16
    23c4:	80 e0       	ldi	r24, 0x00	; 0
    23c6:	0e 94 5c 06 	call	0xcb8	; 0xcb8 <sysclk_enable_module>
    23ca:	80 e0       	ldi	r24, 0x00	; 0
    23cc:	08 95       	ret

000023ce <tc_ovf_callback>:
    23ce:	0c 94 9a 01 	jmp	0x334	; 0x334 <tmr_ovf_callback>
    23d2:	08 95       	ret

000023d4 <tc_cca_callback>:
    23d4:	0c 94 d2 01 	jmp	0x3a4	; 0x3a4 <tmr_cca_callback>
    23d8:	08 95       	ret

000023da <tmr_read_count>:
    23da:	80 91 84 00 	lds	r24, 0x0084	; 0x800084 <__TEXT_REGION_LENGTH__+0x7c0084>
    23de:	90 91 85 00 	lds	r25, 0x0085	; 0x800085 <__TEXT_REGION_LENGTH__+0x7c0085>
    23e2:	08 95       	ret

000023e4 <tmr_disable_cc_interrupt>:
    23e4:	ef e6       	ldi	r30, 0x6F	; 111
    23e6:	f0 e0       	ldi	r31, 0x00	; 0
    23e8:	80 81       	ld	r24, Z
    23ea:	8d 7f       	andi	r24, 0xFD	; 253
    23ec:	80 83       	st	Z, r24
    23ee:	b1 9a       	sbi	0x16, 1	; 22
    23f0:	08 95       	ret

000023f2 <tmr_enable_cc_interrupt>:
    23f2:	b1 9a       	sbi	0x16, 1	; 22
    23f4:	ef e6       	ldi	r30, 0x6F	; 111
    23f6:	f0 e0       	ldi	r31, 0x00	; 0
    23f8:	80 81       	ld	r24, Z
    23fa:	82 60       	ori	r24, 0x02	; 2
    23fc:	80 83       	st	Z, r24
    23fe:	08 95       	ret

00002400 <tmr_disable_ovf_interrupt>:
    2400:	ef e6       	ldi	r30, 0x6F	; 111
    2402:	f0 e0       	ldi	r31, 0x00	; 0
    2404:	80 81       	ld	r24, Z
    2406:	81 60       	ori	r24, 0x01	; 1
    2408:	80 83       	st	Z, r24
    240a:	b0 9a       	sbi	0x16, 0	; 22
    240c:	08 95       	ret

0000240e <tmr_stop>:
    240e:	80 e8       	ldi	r24, 0x80	; 128
    2410:	90 e0       	ldi	r25, 0x00	; 0
    2412:	82 c3       	rjmp	.+1796   	; 0x2b18 <tc_disable>
    2414:	08 95       	ret

00002416 <tmr_write_cmpreg>:
    2416:	e9 e8       	ldi	r30, 0x89	; 137
    2418:	f0 e0       	ldi	r31, 0x00	; 0
    241a:	20 81       	ld	r18, Z
    241c:	92 2b       	or	r25, r18
    241e:	90 83       	st	Z, r25
    2420:	e8 e8       	ldi	r30, 0x88	; 136
    2422:	f0 e0       	ldi	r31, 0x00	; 0
    2424:	90 81       	ld	r25, Z
    2426:	89 2b       	or	r24, r25
    2428:	80 83       	st	Z, r24
    242a:	08 95       	ret

0000242c <save_cpu_interrupt>:
    242c:	cf 93       	push	r28
    242e:	df 93       	push	r29
    2430:	1f 92       	push	r1
    2432:	cd b7       	in	r28, 0x3d	; 61
    2434:	de b7       	in	r29, 0x3e	; 62
    2436:	8f b7       	in	r24, 0x3f	; 63
    2438:	89 83       	std	Y+1, r24	; 0x01
    243a:	f8 94       	cli
    243c:	89 81       	ldd	r24, Y+1	; 0x01
    243e:	0f 90       	pop	r0
    2440:	df 91       	pop	r29
    2442:	cf 91       	pop	r28
    2444:	08 95       	ret

00002446 <restore_cpu_interrupt>:
    2446:	8f bf       	out	0x3f, r24	; 63
    2448:	08 95       	ret

0000244a <tmr_init>:
    244a:	cf 93       	push	r28
    244c:	df 93       	push	r29
    244e:	80 e8       	ldi	r24, 0x80	; 128
    2450:	90 e0       	ldi	r25, 0x00	; 0
    2452:	eb d2       	rcall	.+1494   	; 0x2a2a <tc_enable>
    2454:	67 ee       	ldi	r22, 0xE7	; 231
    2456:	71 e1       	ldi	r23, 0x11	; 17
    2458:	80 e8       	ldi	r24, 0x80	; 128
    245a:	90 e0       	ldi	r25, 0x00	; 0
    245c:	d4 d3       	rcall	.+1960   	; 0x2c06 <tc_set_overflow_interrupt_callback>
    245e:	cf e6       	ldi	r28, 0x6F	; 111
    2460:	d0 e0       	ldi	r29, 0x00	; 0
    2462:	88 81       	ld	r24, Y
    2464:	81 60       	ori	r24, 0x01	; 1
    2466:	88 83       	st	Y, r24
    2468:	6a ee       	ldi	r22, 0xEA	; 234
    246a:	71 e1       	ldi	r23, 0x11	; 17
    246c:	80 e8       	ldi	r24, 0x80	; 128
    246e:	90 e0       	ldi	r25, 0x00	; 0
    2470:	ea d3       	rcall	.+2004   	; 0x2c46 <tc_set_compa_interrupt_callback>
    2472:	88 81       	ld	r24, Y
    2474:	8d 7f       	andi	r24, 0xFD	; 253
    2476:	88 83       	st	Y, r24
    2478:	e1 e8       	ldi	r30, 0x81	; 129
    247a:	f0 e0       	ldi	r31, 0x00	; 0
    247c:	80 81       	ld	r24, Z
    247e:	81 60       	ori	r24, 0x01	; 1
    2480:	80 83       	st	Z, r24
    2482:	88 e0       	ldi	r24, 0x08	; 8
    2484:	df 91       	pop	r29
    2486:	cf 91       	pop	r28
    2488:	08 95       	ret

0000248a <__vector_20>:
    248a:	1f 92       	push	r1
    248c:	0f 92       	push	r0
    248e:	0f b6       	in	r0, 0x3f	; 63
    2490:	0f 92       	push	r0
    2492:	11 24       	eor	r1, r1
    2494:	0b b6       	in	r0, 0x3b	; 59
    2496:	0f 92       	push	r0
    2498:	2f 93       	push	r18
    249a:	3f 93       	push	r19
    249c:	4f 93       	push	r20
    249e:	5f 93       	push	r21
    24a0:	6f 93       	push	r22
    24a2:	7f 93       	push	r23
    24a4:	8f 93       	push	r24
    24a6:	9f 93       	push	r25
    24a8:	af 93       	push	r26
    24aa:	bf 93       	push	r27
    24ac:	ef 93       	push	r30
    24ae:	ff 93       	push	r31
    24b0:	e0 91 a9 05 	lds	r30, 0x05A9	; 0x8005a9 <tc_tccr1_ovf_callback>
    24b4:	f0 91 aa 05 	lds	r31, 0x05AA	; 0x8005aa <tc_tccr1_ovf_callback+0x1>
    24b8:	30 97       	sbiw	r30, 0x00	; 0
    24ba:	09 f0       	breq	.+2      	; 0x24be <__vector_20+0x34>
    24bc:	19 95       	eicall
    24be:	ff 91       	pop	r31
    24c0:	ef 91       	pop	r30
    24c2:	bf 91       	pop	r27
    24c4:	af 91       	pop	r26
    24c6:	9f 91       	pop	r25
    24c8:	8f 91       	pop	r24
    24ca:	7f 91       	pop	r23
    24cc:	6f 91       	pop	r22
    24ce:	5f 91       	pop	r21
    24d0:	4f 91       	pop	r20
    24d2:	3f 91       	pop	r19
    24d4:	2f 91       	pop	r18
    24d6:	0f 90       	pop	r0
    24d8:	0b be       	out	0x3b, r0	; 59
    24da:	0f 90       	pop	r0
    24dc:	0f be       	out	0x3f, r0	; 63
    24de:	0f 90       	pop	r0
    24e0:	1f 90       	pop	r1
    24e2:	18 95       	reti

000024e4 <__vector_17>:
    24e4:	1f 92       	push	r1
    24e6:	0f 92       	push	r0
    24e8:	0f b6       	in	r0, 0x3f	; 63
    24ea:	0f 92       	push	r0
    24ec:	11 24       	eor	r1, r1
    24ee:	0b b6       	in	r0, 0x3b	; 59
    24f0:	0f 92       	push	r0
    24f2:	2f 93       	push	r18
    24f4:	3f 93       	push	r19
    24f6:	4f 93       	push	r20
    24f8:	5f 93       	push	r21
    24fa:	6f 93       	push	r22
    24fc:	7f 93       	push	r23
    24fe:	8f 93       	push	r24
    2500:	9f 93       	push	r25
    2502:	af 93       	push	r26
    2504:	bf 93       	push	r27
    2506:	ef 93       	push	r30
    2508:	ff 93       	push	r31
    250a:	e0 91 a7 05 	lds	r30, 0x05A7	; 0x8005a7 <tc_tccr1_compa_callback>
    250e:	f0 91 a8 05 	lds	r31, 0x05A8	; 0x8005a8 <tc_tccr1_compa_callback+0x1>
    2512:	30 97       	sbiw	r30, 0x00	; 0
    2514:	09 f0       	breq	.+2      	; 0x2518 <__vector_17+0x34>
    2516:	19 95       	eicall
    2518:	ff 91       	pop	r31
    251a:	ef 91       	pop	r30
    251c:	bf 91       	pop	r27
    251e:	af 91       	pop	r26
    2520:	9f 91       	pop	r25
    2522:	8f 91       	pop	r24
    2524:	7f 91       	pop	r23
    2526:	6f 91       	pop	r22
    2528:	5f 91       	pop	r21
    252a:	4f 91       	pop	r20
    252c:	3f 91       	pop	r19
    252e:	2f 91       	pop	r18
    2530:	0f 90       	pop	r0
    2532:	0b be       	out	0x3b, r0	; 59
    2534:	0f 90       	pop	r0
    2536:	0f be       	out	0x3f, r0	; 63
    2538:	0f 90       	pop	r0
    253a:	1f 90       	pop	r1
    253c:	18 95       	reti

0000253e <__vector_18>:
    253e:	1f 92       	push	r1
    2540:	0f 92       	push	r0
    2542:	0f b6       	in	r0, 0x3f	; 63
    2544:	0f 92       	push	r0
    2546:	11 24       	eor	r1, r1
    2548:	0b b6       	in	r0, 0x3b	; 59
    254a:	0f 92       	push	r0
    254c:	2f 93       	push	r18
    254e:	3f 93       	push	r19
    2550:	4f 93       	push	r20
    2552:	5f 93       	push	r21
    2554:	6f 93       	push	r22
    2556:	7f 93       	push	r23
    2558:	8f 93       	push	r24
    255a:	9f 93       	push	r25
    255c:	af 93       	push	r26
    255e:	bf 93       	push	r27
    2560:	ef 93       	push	r30
    2562:	ff 93       	push	r31
    2564:	e0 91 a5 05 	lds	r30, 0x05A5	; 0x8005a5 <tc_tccr1_compb_callback>
    2568:	f0 91 a6 05 	lds	r31, 0x05A6	; 0x8005a6 <tc_tccr1_compb_callback+0x1>
    256c:	30 97       	sbiw	r30, 0x00	; 0
    256e:	09 f0       	breq	.+2      	; 0x2572 <__vector_18+0x34>
    2570:	19 95       	eicall
    2572:	ff 91       	pop	r31
    2574:	ef 91       	pop	r30
    2576:	bf 91       	pop	r27
    2578:	af 91       	pop	r26
    257a:	9f 91       	pop	r25
    257c:	8f 91       	pop	r24
    257e:	7f 91       	pop	r23
    2580:	6f 91       	pop	r22
    2582:	5f 91       	pop	r21
    2584:	4f 91       	pop	r20
    2586:	3f 91       	pop	r19
    2588:	2f 91       	pop	r18
    258a:	0f 90       	pop	r0
    258c:	0b be       	out	0x3b, r0	; 59
    258e:	0f 90       	pop	r0
    2590:	0f be       	out	0x3f, r0	; 63
    2592:	0f 90       	pop	r0
    2594:	1f 90       	pop	r1
    2596:	18 95       	reti

00002598 <__vector_19>:
    2598:	1f 92       	push	r1
    259a:	0f 92       	push	r0
    259c:	0f b6       	in	r0, 0x3f	; 63
    259e:	0f 92       	push	r0
    25a0:	11 24       	eor	r1, r1
    25a2:	0b b6       	in	r0, 0x3b	; 59
    25a4:	0f 92       	push	r0
    25a6:	2f 93       	push	r18
    25a8:	3f 93       	push	r19
    25aa:	4f 93       	push	r20
    25ac:	5f 93       	push	r21
    25ae:	6f 93       	push	r22
    25b0:	7f 93       	push	r23
    25b2:	8f 93       	push	r24
    25b4:	9f 93       	push	r25
    25b6:	af 93       	push	r26
    25b8:	bf 93       	push	r27
    25ba:	ef 93       	push	r30
    25bc:	ff 93       	push	r31
    25be:	e0 91 a3 05 	lds	r30, 0x05A3	; 0x8005a3 <tc_tccr1_compc_callback>
    25c2:	f0 91 a4 05 	lds	r31, 0x05A4	; 0x8005a4 <tc_tccr1_compc_callback+0x1>
    25c6:	30 97       	sbiw	r30, 0x00	; 0
    25c8:	09 f0       	breq	.+2      	; 0x25cc <__vector_19+0x34>
    25ca:	19 95       	eicall
    25cc:	ff 91       	pop	r31
    25ce:	ef 91       	pop	r30
    25d0:	bf 91       	pop	r27
    25d2:	af 91       	pop	r26
    25d4:	9f 91       	pop	r25
    25d6:	8f 91       	pop	r24
    25d8:	7f 91       	pop	r23
    25da:	6f 91       	pop	r22
    25dc:	5f 91       	pop	r21
    25de:	4f 91       	pop	r20
    25e0:	3f 91       	pop	r19
    25e2:	2f 91       	pop	r18
    25e4:	0f 90       	pop	r0
    25e6:	0b be       	out	0x3b, r0	; 59
    25e8:	0f 90       	pop	r0
    25ea:	0f be       	out	0x3f, r0	; 63
    25ec:	0f 90       	pop	r0
    25ee:	1f 90       	pop	r1
    25f0:	18 95       	reti

000025f2 <__vector_35>:
    25f2:	1f 92       	push	r1
    25f4:	0f 92       	push	r0
    25f6:	0f b6       	in	r0, 0x3f	; 63
    25f8:	0f 92       	push	r0
    25fa:	11 24       	eor	r1, r1
    25fc:	0b b6       	in	r0, 0x3b	; 59
    25fe:	0f 92       	push	r0
    2600:	2f 93       	push	r18
    2602:	3f 93       	push	r19
    2604:	4f 93       	push	r20
    2606:	5f 93       	push	r21
    2608:	6f 93       	push	r22
    260a:	7f 93       	push	r23
    260c:	8f 93       	push	r24
    260e:	9f 93       	push	r25
    2610:	af 93       	push	r26
    2612:	bf 93       	push	r27
    2614:	ef 93       	push	r30
    2616:	ff 93       	push	r31
    2618:	e0 91 a1 05 	lds	r30, 0x05A1	; 0x8005a1 <tc_tccr3_ovf_callback>
    261c:	f0 91 a2 05 	lds	r31, 0x05A2	; 0x8005a2 <tc_tccr3_ovf_callback+0x1>
    2620:	30 97       	sbiw	r30, 0x00	; 0
    2622:	09 f0       	breq	.+2      	; 0x2626 <__vector_35+0x34>
    2624:	19 95       	eicall
    2626:	ff 91       	pop	r31
    2628:	ef 91       	pop	r30
    262a:	bf 91       	pop	r27
    262c:	af 91       	pop	r26
    262e:	9f 91       	pop	r25
    2630:	8f 91       	pop	r24
    2632:	7f 91       	pop	r23
    2634:	6f 91       	pop	r22
    2636:	5f 91       	pop	r21
    2638:	4f 91       	pop	r20
    263a:	3f 91       	pop	r19
    263c:	2f 91       	pop	r18
    263e:	0f 90       	pop	r0
    2640:	0b be       	out	0x3b, r0	; 59
    2642:	0f 90       	pop	r0
    2644:	0f be       	out	0x3f, r0	; 63
    2646:	0f 90       	pop	r0
    2648:	1f 90       	pop	r1
    264a:	18 95       	reti

0000264c <__vector_32>:
    264c:	1f 92       	push	r1
    264e:	0f 92       	push	r0
    2650:	0f b6       	in	r0, 0x3f	; 63
    2652:	0f 92       	push	r0
    2654:	11 24       	eor	r1, r1
    2656:	0b b6       	in	r0, 0x3b	; 59
    2658:	0f 92       	push	r0
    265a:	2f 93       	push	r18
    265c:	3f 93       	push	r19
    265e:	4f 93       	push	r20
    2660:	5f 93       	push	r21
    2662:	6f 93       	push	r22
    2664:	7f 93       	push	r23
    2666:	8f 93       	push	r24
    2668:	9f 93       	push	r25
    266a:	af 93       	push	r26
    266c:	bf 93       	push	r27
    266e:	ef 93       	push	r30
    2670:	ff 93       	push	r31
    2672:	e0 91 9f 05 	lds	r30, 0x059F	; 0x80059f <tc_tccr3_compa_callback>
    2676:	f0 91 a0 05 	lds	r31, 0x05A0	; 0x8005a0 <tc_tccr3_compa_callback+0x1>
    267a:	30 97       	sbiw	r30, 0x00	; 0
    267c:	09 f0       	breq	.+2      	; 0x2680 <__vector_32+0x34>
    267e:	19 95       	eicall
    2680:	ff 91       	pop	r31
    2682:	ef 91       	pop	r30
    2684:	bf 91       	pop	r27
    2686:	af 91       	pop	r26
    2688:	9f 91       	pop	r25
    268a:	8f 91       	pop	r24
    268c:	7f 91       	pop	r23
    268e:	6f 91       	pop	r22
    2690:	5f 91       	pop	r21
    2692:	4f 91       	pop	r20
    2694:	3f 91       	pop	r19
    2696:	2f 91       	pop	r18
    2698:	0f 90       	pop	r0
    269a:	0b be       	out	0x3b, r0	; 59
    269c:	0f 90       	pop	r0
    269e:	0f be       	out	0x3f, r0	; 63
    26a0:	0f 90       	pop	r0
    26a2:	1f 90       	pop	r1
    26a4:	18 95       	reti

000026a6 <__vector_33>:
    26a6:	1f 92       	push	r1
    26a8:	0f 92       	push	r0
    26aa:	0f b6       	in	r0, 0x3f	; 63
    26ac:	0f 92       	push	r0
    26ae:	11 24       	eor	r1, r1
    26b0:	0b b6       	in	r0, 0x3b	; 59
    26b2:	0f 92       	push	r0
    26b4:	2f 93       	push	r18
    26b6:	3f 93       	push	r19
    26b8:	4f 93       	push	r20
    26ba:	5f 93       	push	r21
    26bc:	6f 93       	push	r22
    26be:	7f 93       	push	r23
    26c0:	8f 93       	push	r24
    26c2:	9f 93       	push	r25
    26c4:	af 93       	push	r26
    26c6:	bf 93       	push	r27
    26c8:	ef 93       	push	r30
    26ca:	ff 93       	push	r31
    26cc:	e0 91 9d 05 	lds	r30, 0x059D	; 0x80059d <tc_tccr3_compb_callback>
    26d0:	f0 91 9e 05 	lds	r31, 0x059E	; 0x80059e <tc_tccr3_compb_callback+0x1>
    26d4:	30 97       	sbiw	r30, 0x00	; 0
    26d6:	09 f0       	breq	.+2      	; 0x26da <__vector_33+0x34>
    26d8:	19 95       	eicall
    26da:	ff 91       	pop	r31
    26dc:	ef 91       	pop	r30
    26de:	bf 91       	pop	r27
    26e0:	af 91       	pop	r26
    26e2:	9f 91       	pop	r25
    26e4:	8f 91       	pop	r24
    26e6:	7f 91       	pop	r23
    26e8:	6f 91       	pop	r22
    26ea:	5f 91       	pop	r21
    26ec:	4f 91       	pop	r20
    26ee:	3f 91       	pop	r19
    26f0:	2f 91       	pop	r18
    26f2:	0f 90       	pop	r0
    26f4:	0b be       	out	0x3b, r0	; 59
    26f6:	0f 90       	pop	r0
    26f8:	0f be       	out	0x3f, r0	; 63
    26fa:	0f 90       	pop	r0
    26fc:	1f 90       	pop	r1
    26fe:	18 95       	reti

00002700 <__vector_34>:
    2700:	1f 92       	push	r1
    2702:	0f 92       	push	r0
    2704:	0f b6       	in	r0, 0x3f	; 63
    2706:	0f 92       	push	r0
    2708:	11 24       	eor	r1, r1
    270a:	0b b6       	in	r0, 0x3b	; 59
    270c:	0f 92       	push	r0
    270e:	2f 93       	push	r18
    2710:	3f 93       	push	r19
    2712:	4f 93       	push	r20
    2714:	5f 93       	push	r21
    2716:	6f 93       	push	r22
    2718:	7f 93       	push	r23
    271a:	8f 93       	push	r24
    271c:	9f 93       	push	r25
    271e:	af 93       	push	r26
    2720:	bf 93       	push	r27
    2722:	ef 93       	push	r30
    2724:	ff 93       	push	r31
    2726:	e0 91 9b 05 	lds	r30, 0x059B	; 0x80059b <tc_tccr3_compc_callback>
    272a:	f0 91 9c 05 	lds	r31, 0x059C	; 0x80059c <tc_tccr3_compc_callback+0x1>
    272e:	30 97       	sbiw	r30, 0x00	; 0
    2730:	09 f0       	breq	.+2      	; 0x2734 <__vector_34+0x34>
    2732:	19 95       	eicall
    2734:	ff 91       	pop	r31
    2736:	ef 91       	pop	r30
    2738:	bf 91       	pop	r27
    273a:	af 91       	pop	r26
    273c:	9f 91       	pop	r25
    273e:	8f 91       	pop	r24
    2740:	7f 91       	pop	r23
    2742:	6f 91       	pop	r22
    2744:	5f 91       	pop	r21
    2746:	4f 91       	pop	r20
    2748:	3f 91       	pop	r19
    274a:	2f 91       	pop	r18
    274c:	0f 90       	pop	r0
    274e:	0b be       	out	0x3b, r0	; 59
    2750:	0f 90       	pop	r0
    2752:	0f be       	out	0x3f, r0	; 63
    2754:	0f 90       	pop	r0
    2756:	1f 90       	pop	r1
    2758:	18 95       	reti

0000275a <__vector_45>:
    275a:	1f 92       	push	r1
    275c:	0f 92       	push	r0
    275e:	0f b6       	in	r0, 0x3f	; 63
    2760:	0f 92       	push	r0
    2762:	11 24       	eor	r1, r1
    2764:	0b b6       	in	r0, 0x3b	; 59
    2766:	0f 92       	push	r0
    2768:	2f 93       	push	r18
    276a:	3f 93       	push	r19
    276c:	4f 93       	push	r20
    276e:	5f 93       	push	r21
    2770:	6f 93       	push	r22
    2772:	7f 93       	push	r23
    2774:	8f 93       	push	r24
    2776:	9f 93       	push	r25
    2778:	af 93       	push	r26
    277a:	bf 93       	push	r27
    277c:	ef 93       	push	r30
    277e:	ff 93       	push	r31
    2780:	e0 91 99 05 	lds	r30, 0x0599	; 0x800599 <tc_tccr4_ovf_callback>
    2784:	f0 91 9a 05 	lds	r31, 0x059A	; 0x80059a <tc_tccr4_ovf_callback+0x1>
    2788:	30 97       	sbiw	r30, 0x00	; 0
    278a:	09 f0       	breq	.+2      	; 0x278e <__vector_45+0x34>
    278c:	19 95       	eicall
    278e:	ff 91       	pop	r31
    2790:	ef 91       	pop	r30
    2792:	bf 91       	pop	r27
    2794:	af 91       	pop	r26
    2796:	9f 91       	pop	r25
    2798:	8f 91       	pop	r24
    279a:	7f 91       	pop	r23
    279c:	6f 91       	pop	r22
    279e:	5f 91       	pop	r21
    27a0:	4f 91       	pop	r20
    27a2:	3f 91       	pop	r19
    27a4:	2f 91       	pop	r18
    27a6:	0f 90       	pop	r0
    27a8:	0b be       	out	0x3b, r0	; 59
    27aa:	0f 90       	pop	r0
    27ac:	0f be       	out	0x3f, r0	; 63
    27ae:	0f 90       	pop	r0
    27b0:	1f 90       	pop	r1
    27b2:	18 95       	reti

000027b4 <__vector_42>:
    27b4:	1f 92       	push	r1
    27b6:	0f 92       	push	r0
    27b8:	0f b6       	in	r0, 0x3f	; 63
    27ba:	0f 92       	push	r0
    27bc:	11 24       	eor	r1, r1
    27be:	0b b6       	in	r0, 0x3b	; 59
    27c0:	0f 92       	push	r0
    27c2:	2f 93       	push	r18
    27c4:	3f 93       	push	r19
    27c6:	4f 93       	push	r20
    27c8:	5f 93       	push	r21
    27ca:	6f 93       	push	r22
    27cc:	7f 93       	push	r23
    27ce:	8f 93       	push	r24
    27d0:	9f 93       	push	r25
    27d2:	af 93       	push	r26
    27d4:	bf 93       	push	r27
    27d6:	ef 93       	push	r30
    27d8:	ff 93       	push	r31
    27da:	e0 91 97 05 	lds	r30, 0x0597	; 0x800597 <tc_tccr4_compa_callback>
    27de:	f0 91 98 05 	lds	r31, 0x0598	; 0x800598 <tc_tccr4_compa_callback+0x1>
    27e2:	30 97       	sbiw	r30, 0x00	; 0
    27e4:	09 f0       	breq	.+2      	; 0x27e8 <__vector_42+0x34>
    27e6:	19 95       	eicall
    27e8:	ff 91       	pop	r31
    27ea:	ef 91       	pop	r30
    27ec:	bf 91       	pop	r27
    27ee:	af 91       	pop	r26
    27f0:	9f 91       	pop	r25
    27f2:	8f 91       	pop	r24
    27f4:	7f 91       	pop	r23
    27f6:	6f 91       	pop	r22
    27f8:	5f 91       	pop	r21
    27fa:	4f 91       	pop	r20
    27fc:	3f 91       	pop	r19
    27fe:	2f 91       	pop	r18
    2800:	0f 90       	pop	r0
    2802:	0b be       	out	0x3b, r0	; 59
    2804:	0f 90       	pop	r0
    2806:	0f be       	out	0x3f, r0	; 63
    2808:	0f 90       	pop	r0
    280a:	1f 90       	pop	r1
    280c:	18 95       	reti

0000280e <__vector_43>:
    280e:	1f 92       	push	r1
    2810:	0f 92       	push	r0
    2812:	0f b6       	in	r0, 0x3f	; 63
    2814:	0f 92       	push	r0
    2816:	11 24       	eor	r1, r1
    2818:	0b b6       	in	r0, 0x3b	; 59
    281a:	0f 92       	push	r0
    281c:	2f 93       	push	r18
    281e:	3f 93       	push	r19
    2820:	4f 93       	push	r20
    2822:	5f 93       	push	r21
    2824:	6f 93       	push	r22
    2826:	7f 93       	push	r23
    2828:	8f 93       	push	r24
    282a:	9f 93       	push	r25
    282c:	af 93       	push	r26
    282e:	bf 93       	push	r27
    2830:	ef 93       	push	r30
    2832:	ff 93       	push	r31
    2834:	e0 91 95 05 	lds	r30, 0x0595	; 0x800595 <tc_tccr4_compb_callback>
    2838:	f0 91 96 05 	lds	r31, 0x0596	; 0x800596 <tc_tccr4_compb_callback+0x1>
    283c:	30 97       	sbiw	r30, 0x00	; 0
    283e:	09 f0       	breq	.+2      	; 0x2842 <__vector_43+0x34>
    2840:	19 95       	eicall
    2842:	ff 91       	pop	r31
    2844:	ef 91       	pop	r30
    2846:	bf 91       	pop	r27
    2848:	af 91       	pop	r26
    284a:	9f 91       	pop	r25
    284c:	8f 91       	pop	r24
    284e:	7f 91       	pop	r23
    2850:	6f 91       	pop	r22
    2852:	5f 91       	pop	r21
    2854:	4f 91       	pop	r20
    2856:	3f 91       	pop	r19
    2858:	2f 91       	pop	r18
    285a:	0f 90       	pop	r0
    285c:	0b be       	out	0x3b, r0	; 59
    285e:	0f 90       	pop	r0
    2860:	0f be       	out	0x3f, r0	; 63
    2862:	0f 90       	pop	r0
    2864:	1f 90       	pop	r1
    2866:	18 95       	reti

00002868 <__vector_44>:
    2868:	1f 92       	push	r1
    286a:	0f 92       	push	r0
    286c:	0f b6       	in	r0, 0x3f	; 63
    286e:	0f 92       	push	r0
    2870:	11 24       	eor	r1, r1
    2872:	0b b6       	in	r0, 0x3b	; 59
    2874:	0f 92       	push	r0
    2876:	2f 93       	push	r18
    2878:	3f 93       	push	r19
    287a:	4f 93       	push	r20
    287c:	5f 93       	push	r21
    287e:	6f 93       	push	r22
    2880:	7f 93       	push	r23
    2882:	8f 93       	push	r24
    2884:	9f 93       	push	r25
    2886:	af 93       	push	r26
    2888:	bf 93       	push	r27
    288a:	ef 93       	push	r30
    288c:	ff 93       	push	r31
    288e:	e0 91 93 05 	lds	r30, 0x0593	; 0x800593 <tc_tccr4_compc_callback>
    2892:	f0 91 94 05 	lds	r31, 0x0594	; 0x800594 <tc_tccr4_compc_callback+0x1>
    2896:	30 97       	sbiw	r30, 0x00	; 0
    2898:	09 f0       	breq	.+2      	; 0x289c <__vector_44+0x34>
    289a:	19 95       	eicall
    289c:	ff 91       	pop	r31
    289e:	ef 91       	pop	r30
    28a0:	bf 91       	pop	r27
    28a2:	af 91       	pop	r26
    28a4:	9f 91       	pop	r25
    28a6:	8f 91       	pop	r24
    28a8:	7f 91       	pop	r23
    28aa:	6f 91       	pop	r22
    28ac:	5f 91       	pop	r21
    28ae:	4f 91       	pop	r20
    28b0:	3f 91       	pop	r19
    28b2:	2f 91       	pop	r18
    28b4:	0f 90       	pop	r0
    28b6:	0b be       	out	0x3b, r0	; 59
    28b8:	0f 90       	pop	r0
    28ba:	0f be       	out	0x3f, r0	; 63
    28bc:	0f 90       	pop	r0
    28be:	1f 90       	pop	r1
    28c0:	18 95       	reti

000028c2 <__vector_50>:
    28c2:	1f 92       	push	r1
    28c4:	0f 92       	push	r0
    28c6:	0f b6       	in	r0, 0x3f	; 63
    28c8:	0f 92       	push	r0
    28ca:	11 24       	eor	r1, r1
    28cc:	0b b6       	in	r0, 0x3b	; 59
    28ce:	0f 92       	push	r0
    28d0:	2f 93       	push	r18
    28d2:	3f 93       	push	r19
    28d4:	4f 93       	push	r20
    28d6:	5f 93       	push	r21
    28d8:	6f 93       	push	r22
    28da:	7f 93       	push	r23
    28dc:	8f 93       	push	r24
    28de:	9f 93       	push	r25
    28e0:	af 93       	push	r26
    28e2:	bf 93       	push	r27
    28e4:	ef 93       	push	r30
    28e6:	ff 93       	push	r31
    28e8:	e0 91 91 05 	lds	r30, 0x0591	; 0x800591 <tc_tccr5_ovf_callback>
    28ec:	f0 91 92 05 	lds	r31, 0x0592	; 0x800592 <tc_tccr5_ovf_callback+0x1>
    28f0:	30 97       	sbiw	r30, 0x00	; 0
    28f2:	09 f0       	breq	.+2      	; 0x28f6 <__vector_50+0x34>
    28f4:	19 95       	eicall
    28f6:	ff 91       	pop	r31
    28f8:	ef 91       	pop	r30
    28fa:	bf 91       	pop	r27
    28fc:	af 91       	pop	r26
    28fe:	9f 91       	pop	r25
    2900:	8f 91       	pop	r24
    2902:	7f 91       	pop	r23
    2904:	6f 91       	pop	r22
    2906:	5f 91       	pop	r21
    2908:	4f 91       	pop	r20
    290a:	3f 91       	pop	r19
    290c:	2f 91       	pop	r18
    290e:	0f 90       	pop	r0
    2910:	0b be       	out	0x3b, r0	; 59
    2912:	0f 90       	pop	r0
    2914:	0f be       	out	0x3f, r0	; 63
    2916:	0f 90       	pop	r0
    2918:	1f 90       	pop	r1
    291a:	18 95       	reti

0000291c <__vector_47>:
    291c:	1f 92       	push	r1
    291e:	0f 92       	push	r0
    2920:	0f b6       	in	r0, 0x3f	; 63
    2922:	0f 92       	push	r0
    2924:	11 24       	eor	r1, r1
    2926:	0b b6       	in	r0, 0x3b	; 59
    2928:	0f 92       	push	r0
    292a:	2f 93       	push	r18
    292c:	3f 93       	push	r19
    292e:	4f 93       	push	r20
    2930:	5f 93       	push	r21
    2932:	6f 93       	push	r22
    2934:	7f 93       	push	r23
    2936:	8f 93       	push	r24
    2938:	9f 93       	push	r25
    293a:	af 93       	push	r26
    293c:	bf 93       	push	r27
    293e:	ef 93       	push	r30
    2940:	ff 93       	push	r31
    2942:	e0 91 8f 05 	lds	r30, 0x058F	; 0x80058f <tc_tccr5_compa_callback>
    2946:	f0 91 90 05 	lds	r31, 0x0590	; 0x800590 <tc_tccr5_compa_callback+0x1>
    294a:	30 97       	sbiw	r30, 0x00	; 0
    294c:	09 f0       	breq	.+2      	; 0x2950 <__vector_47+0x34>
    294e:	19 95       	eicall
    2950:	ff 91       	pop	r31
    2952:	ef 91       	pop	r30
    2954:	bf 91       	pop	r27
    2956:	af 91       	pop	r26
    2958:	9f 91       	pop	r25
    295a:	8f 91       	pop	r24
    295c:	7f 91       	pop	r23
    295e:	6f 91       	pop	r22
    2960:	5f 91       	pop	r21
    2962:	4f 91       	pop	r20
    2964:	3f 91       	pop	r19
    2966:	2f 91       	pop	r18
    2968:	0f 90       	pop	r0
    296a:	0b be       	out	0x3b, r0	; 59
    296c:	0f 90       	pop	r0
    296e:	0f be       	out	0x3f, r0	; 63
    2970:	0f 90       	pop	r0
    2972:	1f 90       	pop	r1
    2974:	18 95       	reti

00002976 <__vector_48>:
    2976:	1f 92       	push	r1
    2978:	0f 92       	push	r0
    297a:	0f b6       	in	r0, 0x3f	; 63
    297c:	0f 92       	push	r0
    297e:	11 24       	eor	r1, r1
    2980:	0b b6       	in	r0, 0x3b	; 59
    2982:	0f 92       	push	r0
    2984:	2f 93       	push	r18
    2986:	3f 93       	push	r19
    2988:	4f 93       	push	r20
    298a:	5f 93       	push	r21
    298c:	6f 93       	push	r22
    298e:	7f 93       	push	r23
    2990:	8f 93       	push	r24
    2992:	9f 93       	push	r25
    2994:	af 93       	push	r26
    2996:	bf 93       	push	r27
    2998:	ef 93       	push	r30
    299a:	ff 93       	push	r31
    299c:	e0 91 8d 05 	lds	r30, 0x058D	; 0x80058d <tc_tccr5_compb_callback>
    29a0:	f0 91 8e 05 	lds	r31, 0x058E	; 0x80058e <tc_tccr5_compb_callback+0x1>
    29a4:	30 97       	sbiw	r30, 0x00	; 0
    29a6:	09 f0       	breq	.+2      	; 0x29aa <__vector_48+0x34>
    29a8:	19 95       	eicall
    29aa:	ff 91       	pop	r31
    29ac:	ef 91       	pop	r30
    29ae:	bf 91       	pop	r27
    29b0:	af 91       	pop	r26
    29b2:	9f 91       	pop	r25
    29b4:	8f 91       	pop	r24
    29b6:	7f 91       	pop	r23
    29b8:	6f 91       	pop	r22
    29ba:	5f 91       	pop	r21
    29bc:	4f 91       	pop	r20
    29be:	3f 91       	pop	r19
    29c0:	2f 91       	pop	r18
    29c2:	0f 90       	pop	r0
    29c4:	0b be       	out	0x3b, r0	; 59
    29c6:	0f 90       	pop	r0
    29c8:	0f be       	out	0x3f, r0	; 63
    29ca:	0f 90       	pop	r0
    29cc:	1f 90       	pop	r1
    29ce:	18 95       	reti

000029d0 <__vector_49>:
    29d0:	1f 92       	push	r1
    29d2:	0f 92       	push	r0
    29d4:	0f b6       	in	r0, 0x3f	; 63
    29d6:	0f 92       	push	r0
    29d8:	11 24       	eor	r1, r1
    29da:	0b b6       	in	r0, 0x3b	; 59
    29dc:	0f 92       	push	r0
    29de:	2f 93       	push	r18
    29e0:	3f 93       	push	r19
    29e2:	4f 93       	push	r20
    29e4:	5f 93       	push	r21
    29e6:	6f 93       	push	r22
    29e8:	7f 93       	push	r23
    29ea:	8f 93       	push	r24
    29ec:	9f 93       	push	r25
    29ee:	af 93       	push	r26
    29f0:	bf 93       	push	r27
    29f2:	ef 93       	push	r30
    29f4:	ff 93       	push	r31
    29f6:	e0 91 8b 05 	lds	r30, 0x058B	; 0x80058b <tc_tccr5_compc_callback>
    29fa:	f0 91 8c 05 	lds	r31, 0x058C	; 0x80058c <tc_tccr5_compc_callback+0x1>
    29fe:	30 97       	sbiw	r30, 0x00	; 0
    2a00:	09 f0       	breq	.+2      	; 0x2a04 <__vector_49+0x34>
    2a02:	19 95       	eicall
    2a04:	ff 91       	pop	r31
    2a06:	ef 91       	pop	r30
    2a08:	bf 91       	pop	r27
    2a0a:	af 91       	pop	r26
    2a0c:	9f 91       	pop	r25
    2a0e:	8f 91       	pop	r24
    2a10:	7f 91       	pop	r23
    2a12:	6f 91       	pop	r22
    2a14:	5f 91       	pop	r21
    2a16:	4f 91       	pop	r20
    2a18:	3f 91       	pop	r19
    2a1a:	2f 91       	pop	r18
    2a1c:	0f 90       	pop	r0
    2a1e:	0b be       	out	0x3b, r0	; 59
    2a20:	0f 90       	pop	r0
    2a22:	0f be       	out	0x3f, r0	; 63
    2a24:	0f 90       	pop	r0
    2a26:	1f 90       	pop	r1
    2a28:	18 95       	reti

00002a2a <tc_enable>:
    2a2a:	1f 93       	push	r17
    2a2c:	cf 93       	push	r28
    2a2e:	df 93       	push	r29
    2a30:	1f 92       	push	r1
    2a32:	cd b7       	in	r28, 0x3d	; 61
    2a34:	de b7       	in	r29, 0x3e	; 62
    2a36:	2f b7       	in	r18, 0x3f	; 63
    2a38:	29 83       	std	Y+1, r18	; 0x01
    2a3a:	f8 94       	cli
    2a3c:	19 81       	ldd	r17, Y+1	; 0x01
    2a3e:	00 97       	sbiw	r24, 0x00	; 0
    2a40:	09 f4       	brne	.+2      	; 0x2a44 <tc_enable+0x1a>
    2a42:	64 c0       	rjmp	.+200    	; 0x2b0c <tc_enable+0xe2>
    2a44:	88 37       	cpi	r24, 0x78	; 120
    2a46:	91 05       	cpc	r25, r1
    2a48:	49 f4       	brne	.+18     	; 0x2a5c <tc_enable+0x32>
    2a4a:	61 e0       	ldi	r22, 0x01	; 1
    2a4c:	80 e0       	ldi	r24, 0x00	; 0
    2a4e:	0e 94 5c 06 	call	0xcb8	; 0xcb8 <sysclk_enable_module>
    2a52:	60 e1       	ldi	r22, 0x10	; 16
    2a54:	80 e0       	ldi	r24, 0x00	; 0
    2a56:	0e 94 5c 06 	call	0xcb8	; 0xcb8 <sysclk_enable_module>
    2a5a:	58 c0       	rjmp	.+176    	; 0x2b0c <tc_enable+0xe2>
    2a5c:	80 3c       	cpi	r24, 0xC0	; 192
    2a5e:	91 05       	cpc	r25, r1
    2a60:	29 f4       	brne	.+10     	; 0x2a6c <tc_enable+0x42>
    2a62:	62 e0       	ldi	r22, 0x02	; 2
    2a64:	80 e0       	ldi	r24, 0x00	; 0
    2a66:	0e 94 5c 06 	call	0xcb8	; 0xcb8 <sysclk_enable_module>
    2a6a:	50 c0       	rjmp	.+160    	; 0x2b0c <tc_enable+0xe2>
    2a6c:	8c 34       	cpi	r24, 0x4C	; 76
    2a6e:	91 05       	cpc	r25, r1
    2a70:	29 f4       	brne	.+10     	; 0x2a7c <tc_enable+0x52>
    2a72:	64 e0       	ldi	r22, 0x04	; 4
    2a74:	80 e0       	ldi	r24, 0x00	; 0
    2a76:	0e 94 5c 06 	call	0xcb8	; 0xcb8 <sysclk_enable_module>
    2a7a:	48 c0       	rjmp	.+144    	; 0x2b0c <tc_enable+0xe2>
    2a7c:	80 38       	cpi	r24, 0x80	; 128
    2a7e:	91 05       	cpc	r25, r1
    2a80:	29 f4       	brne	.+10     	; 0x2a8c <tc_enable+0x62>
    2a82:	68 e0       	ldi	r22, 0x08	; 8
    2a84:	80 e0       	ldi	r24, 0x00	; 0
    2a86:	0e 94 5c 06 	call	0xcb8	; 0xcb8 <sysclk_enable_module>
    2a8a:	40 c0       	rjmp	.+128    	; 0x2b0c <tc_enable+0xe2>
    2a8c:	84 34       	cpi	r24, 0x44	; 68
    2a8e:	91 05       	cpc	r25, r1
    2a90:	29 f4       	brne	.+10     	; 0x2a9c <tc_enable+0x72>
    2a92:	60 e2       	ldi	r22, 0x20	; 32
    2a94:	80 e0       	ldi	r24, 0x00	; 0
    2a96:	0e 94 5c 06 	call	0xcb8	; 0xcb8 <sysclk_enable_module>
    2a9a:	38 c0       	rjmp	.+112    	; 0x2b0c <tc_enable+0xe2>
    2a9c:	80 3b       	cpi	r24, 0xB0	; 176
    2a9e:	91 05       	cpc	r25, r1
    2aa0:	29 f4       	brne	.+10     	; 0x2aac <tc_enable+0x82>
    2aa2:	60 e4       	ldi	r22, 0x40	; 64
    2aa4:	80 e0       	ldi	r24, 0x00	; 0
    2aa6:	0e 94 5c 06 	call	0xcb8	; 0xcb8 <sysclk_enable_module>
    2aaa:	30 c0       	rjmp	.+96     	; 0x2b0c <tc_enable+0xe2>
    2aac:	88 3b       	cpi	r24, 0xB8	; 184
    2aae:	91 05       	cpc	r25, r1
    2ab0:	29 f4       	brne	.+10     	; 0x2abc <tc_enable+0x92>
    2ab2:	60 e8       	ldi	r22, 0x80	; 128
    2ab4:	80 e0       	ldi	r24, 0x00	; 0
    2ab6:	0e 94 5c 06 	call	0xcb8	; 0xcb8 <sysclk_enable_module>
    2aba:	28 c0       	rjmp	.+80     	; 0x2b0c <tc_enable+0xe2>
    2abc:	88 3c       	cpi	r24, 0xC8	; 200
    2abe:	91 05       	cpc	r25, r1
    2ac0:	29 f4       	brne	.+10     	; 0x2acc <tc_enable+0xa2>
    2ac2:	61 e0       	ldi	r22, 0x01	; 1
    2ac4:	81 e0       	ldi	r24, 0x01	; 1
    2ac6:	0e 94 5c 06 	call	0xcb8	; 0xcb8 <sysclk_enable_module>
    2aca:	20 c0       	rjmp	.+64     	; 0x2b0c <tc_enable+0xe2>
    2acc:	80 39       	cpi	r24, 0x90	; 144
    2ace:	91 05       	cpc	r25, r1
    2ad0:	29 f4       	brne	.+10     	; 0x2adc <tc_enable+0xb2>
    2ad2:	68 e0       	ldi	r22, 0x08	; 8
    2ad4:	81 e0       	ldi	r24, 0x01	; 1
    2ad6:	0e 94 5c 06 	call	0xcb8	; 0xcb8 <sysclk_enable_module>
    2ada:	18 c0       	rjmp	.+48     	; 0x2b0c <tc_enable+0xe2>
    2adc:	80 3a       	cpi	r24, 0xA0	; 160
    2ade:	91 05       	cpc	r25, r1
    2ae0:	29 f4       	brne	.+10     	; 0x2aec <tc_enable+0xc2>
    2ae2:	60 e1       	ldi	r22, 0x10	; 16
    2ae4:	81 e0       	ldi	r24, 0x01	; 1
    2ae6:	0e 94 5c 06 	call	0xcb8	; 0xcb8 <sysclk_enable_module>
    2aea:	10 c0       	rjmp	.+32     	; 0x2b0c <tc_enable+0xe2>
    2aec:	80 32       	cpi	r24, 0x20	; 32
    2aee:	21 e0       	ldi	r18, 0x01	; 1
    2af0:	92 07       	cpc	r25, r18
    2af2:	29 f4       	brne	.+10     	; 0x2afe <tc_enable+0xd4>
    2af4:	60 e2       	ldi	r22, 0x20	; 32
    2af6:	81 e0       	ldi	r24, 0x01	; 1
    2af8:	0e 94 5c 06 	call	0xcb8	; 0xcb8 <sysclk_enable_module>
    2afc:	07 c0       	rjmp	.+14     	; 0x2b0c <tc_enable+0xe2>
    2afe:	83 34       	cpi	r24, 0x43	; 67
    2b00:	91 40       	sbci	r25, 0x01	; 1
    2b02:	21 f4       	brne	.+8      	; 0x2b0c <tc_enable+0xe2>
    2b04:	60 e4       	ldi	r22, 0x40	; 64
    2b06:	81 e0       	ldi	r24, 0x01	; 1
    2b08:	0e 94 5c 06 	call	0xcb8	; 0xcb8 <sysclk_enable_module>
    2b0c:	1f bf       	out	0x3f, r17	; 63
    2b0e:	0f 90       	pop	r0
    2b10:	df 91       	pop	r29
    2b12:	cf 91       	pop	r28
    2b14:	1f 91       	pop	r17
    2b16:	08 95       	ret

00002b18 <tc_disable>:
    2b18:	1f 93       	push	r17
    2b1a:	cf 93       	push	r28
    2b1c:	df 93       	push	r29
    2b1e:	1f 92       	push	r1
    2b20:	cd b7       	in	r28, 0x3d	; 61
    2b22:	de b7       	in	r29, 0x3e	; 62
    2b24:	2f b7       	in	r18, 0x3f	; 63
    2b26:	29 83       	std	Y+1, r18	; 0x01
    2b28:	f8 94       	cli
    2b2a:	19 81       	ldd	r17, Y+1	; 0x01
    2b2c:	00 97       	sbiw	r24, 0x00	; 0
    2b2e:	09 f4       	brne	.+2      	; 0x2b32 <tc_disable+0x1a>
    2b30:	64 c0       	rjmp	.+200    	; 0x2bfa <tc_disable+0xe2>
    2b32:	88 37       	cpi	r24, 0x78	; 120
    2b34:	91 05       	cpc	r25, r1
    2b36:	49 f4       	brne	.+18     	; 0x2b4a <tc_disable+0x32>
    2b38:	61 e0       	ldi	r22, 0x01	; 1
    2b3a:	80 e0       	ldi	r24, 0x00	; 0
    2b3c:	0e 94 74 06 	call	0xce8	; 0xce8 <sysclk_disable_module>
    2b40:	60 e1       	ldi	r22, 0x10	; 16
    2b42:	80 e0       	ldi	r24, 0x00	; 0
    2b44:	0e 94 74 06 	call	0xce8	; 0xce8 <sysclk_disable_module>
    2b48:	58 c0       	rjmp	.+176    	; 0x2bfa <tc_disable+0xe2>
    2b4a:	80 3c       	cpi	r24, 0xC0	; 192
    2b4c:	91 05       	cpc	r25, r1
    2b4e:	29 f4       	brne	.+10     	; 0x2b5a <tc_disable+0x42>
    2b50:	62 e0       	ldi	r22, 0x02	; 2
    2b52:	80 e0       	ldi	r24, 0x00	; 0
    2b54:	0e 94 74 06 	call	0xce8	; 0xce8 <sysclk_disable_module>
    2b58:	50 c0       	rjmp	.+160    	; 0x2bfa <tc_disable+0xe2>
    2b5a:	8c 34       	cpi	r24, 0x4C	; 76
    2b5c:	91 05       	cpc	r25, r1
    2b5e:	29 f4       	brne	.+10     	; 0x2b6a <tc_disable+0x52>
    2b60:	64 e0       	ldi	r22, 0x04	; 4
    2b62:	80 e0       	ldi	r24, 0x00	; 0
    2b64:	0e 94 74 06 	call	0xce8	; 0xce8 <sysclk_disable_module>
    2b68:	48 c0       	rjmp	.+144    	; 0x2bfa <tc_disable+0xe2>
    2b6a:	80 38       	cpi	r24, 0x80	; 128
    2b6c:	91 05       	cpc	r25, r1
    2b6e:	29 f4       	brne	.+10     	; 0x2b7a <tc_disable+0x62>
    2b70:	68 e0       	ldi	r22, 0x08	; 8
    2b72:	80 e0       	ldi	r24, 0x00	; 0
    2b74:	0e 94 74 06 	call	0xce8	; 0xce8 <sysclk_disable_module>
    2b78:	40 c0       	rjmp	.+128    	; 0x2bfa <tc_disable+0xe2>
    2b7a:	84 34       	cpi	r24, 0x44	; 68
    2b7c:	91 05       	cpc	r25, r1
    2b7e:	29 f4       	brne	.+10     	; 0x2b8a <tc_disable+0x72>
    2b80:	60 e2       	ldi	r22, 0x20	; 32
    2b82:	80 e0       	ldi	r24, 0x00	; 0
    2b84:	0e 94 74 06 	call	0xce8	; 0xce8 <sysclk_disable_module>
    2b88:	38 c0       	rjmp	.+112    	; 0x2bfa <tc_disable+0xe2>
    2b8a:	80 3b       	cpi	r24, 0xB0	; 176
    2b8c:	91 05       	cpc	r25, r1
    2b8e:	29 f4       	brne	.+10     	; 0x2b9a <tc_disable+0x82>
    2b90:	60 e4       	ldi	r22, 0x40	; 64
    2b92:	80 e0       	ldi	r24, 0x00	; 0
    2b94:	0e 94 74 06 	call	0xce8	; 0xce8 <sysclk_disable_module>
    2b98:	30 c0       	rjmp	.+96     	; 0x2bfa <tc_disable+0xe2>
    2b9a:	88 3b       	cpi	r24, 0xB8	; 184
    2b9c:	91 05       	cpc	r25, r1
    2b9e:	29 f4       	brne	.+10     	; 0x2baa <tc_disable+0x92>
    2ba0:	60 e8       	ldi	r22, 0x80	; 128
    2ba2:	80 e0       	ldi	r24, 0x00	; 0
    2ba4:	0e 94 74 06 	call	0xce8	; 0xce8 <sysclk_disable_module>
    2ba8:	28 c0       	rjmp	.+80     	; 0x2bfa <tc_disable+0xe2>
    2baa:	88 3c       	cpi	r24, 0xC8	; 200
    2bac:	91 05       	cpc	r25, r1
    2bae:	29 f4       	brne	.+10     	; 0x2bba <tc_disable+0xa2>
    2bb0:	61 e0       	ldi	r22, 0x01	; 1
    2bb2:	81 e0       	ldi	r24, 0x01	; 1
    2bb4:	0e 94 74 06 	call	0xce8	; 0xce8 <sysclk_disable_module>
    2bb8:	20 c0       	rjmp	.+64     	; 0x2bfa <tc_disable+0xe2>
    2bba:	80 39       	cpi	r24, 0x90	; 144
    2bbc:	91 05       	cpc	r25, r1
    2bbe:	29 f4       	brne	.+10     	; 0x2bca <tc_disable+0xb2>
    2bc0:	68 e0       	ldi	r22, 0x08	; 8
    2bc2:	81 e0       	ldi	r24, 0x01	; 1
    2bc4:	0e 94 74 06 	call	0xce8	; 0xce8 <sysclk_disable_module>
    2bc8:	18 c0       	rjmp	.+48     	; 0x2bfa <tc_disable+0xe2>
    2bca:	80 3a       	cpi	r24, 0xA0	; 160
    2bcc:	91 05       	cpc	r25, r1
    2bce:	29 f4       	brne	.+10     	; 0x2bda <tc_disable+0xc2>
    2bd0:	60 e1       	ldi	r22, 0x10	; 16
    2bd2:	81 e0       	ldi	r24, 0x01	; 1
    2bd4:	0e 94 74 06 	call	0xce8	; 0xce8 <sysclk_disable_module>
    2bd8:	10 c0       	rjmp	.+32     	; 0x2bfa <tc_disable+0xe2>
    2bda:	80 32       	cpi	r24, 0x20	; 32
    2bdc:	21 e0       	ldi	r18, 0x01	; 1
    2bde:	92 07       	cpc	r25, r18
    2be0:	29 f4       	brne	.+10     	; 0x2bec <tc_disable+0xd4>
    2be2:	60 e2       	ldi	r22, 0x20	; 32
    2be4:	81 e0       	ldi	r24, 0x01	; 1
    2be6:	0e 94 74 06 	call	0xce8	; 0xce8 <sysclk_disable_module>
    2bea:	07 c0       	rjmp	.+14     	; 0x2bfa <tc_disable+0xe2>
    2bec:	83 34       	cpi	r24, 0x43	; 67
    2bee:	91 40       	sbci	r25, 0x01	; 1
    2bf0:	21 f4       	brne	.+8      	; 0x2bfa <tc_disable+0xe2>
    2bf2:	60 e4       	ldi	r22, 0x40	; 64
    2bf4:	81 e0       	ldi	r24, 0x01	; 1
    2bf6:	0e 94 74 06 	call	0xce8	; 0xce8 <sysclk_disable_module>
    2bfa:	1f bf       	out	0x3f, r17	; 63
    2bfc:	0f 90       	pop	r0
    2bfe:	df 91       	pop	r29
    2c00:	cf 91       	pop	r28
    2c02:	1f 91       	pop	r17
    2c04:	08 95       	ret

00002c06 <tc_set_overflow_interrupt_callback>:
    2c06:	80 38       	cpi	r24, 0x80	; 128
    2c08:	91 05       	cpc	r25, r1
    2c0a:	29 f4       	brne	.+10     	; 0x2c16 <tc_set_overflow_interrupt_callback+0x10>
    2c0c:	70 93 aa 05 	sts	0x05AA, r23	; 0x8005aa <tc_tccr1_ovf_callback+0x1>
    2c10:	60 93 a9 05 	sts	0x05A9, r22	; 0x8005a9 <tc_tccr1_ovf_callback>
    2c14:	08 95       	ret
    2c16:	80 39       	cpi	r24, 0x90	; 144
    2c18:	91 05       	cpc	r25, r1
    2c1a:	29 f4       	brne	.+10     	; 0x2c26 <tc_set_overflow_interrupt_callback+0x20>
    2c1c:	70 93 a2 05 	sts	0x05A2, r23	; 0x8005a2 <tc_tccr3_ovf_callback+0x1>
    2c20:	60 93 a1 05 	sts	0x05A1, r22	; 0x8005a1 <tc_tccr3_ovf_callback>
    2c24:	08 95       	ret
    2c26:	80 3a       	cpi	r24, 0xA0	; 160
    2c28:	91 05       	cpc	r25, r1
    2c2a:	29 f4       	brne	.+10     	; 0x2c36 <tc_set_overflow_interrupt_callback+0x30>
    2c2c:	70 93 9a 05 	sts	0x059A, r23	; 0x80059a <tc_tccr4_ovf_callback+0x1>
    2c30:	60 93 99 05 	sts	0x0599, r22	; 0x800599 <tc_tccr4_ovf_callback>
    2c34:	08 95       	ret
    2c36:	80 32       	cpi	r24, 0x20	; 32
    2c38:	91 40       	sbci	r25, 0x01	; 1
    2c3a:	21 f4       	brne	.+8      	; 0x2c44 <tc_set_overflow_interrupt_callback+0x3e>
    2c3c:	70 93 92 05 	sts	0x0592, r23	; 0x800592 <tc_tccr5_ovf_callback+0x1>
    2c40:	60 93 91 05 	sts	0x0591, r22	; 0x800591 <tc_tccr5_ovf_callback>
    2c44:	08 95       	ret

00002c46 <tc_set_compa_interrupt_callback>:
    2c46:	80 38       	cpi	r24, 0x80	; 128
    2c48:	91 05       	cpc	r25, r1
    2c4a:	29 f4       	brne	.+10     	; 0x2c56 <tc_set_compa_interrupt_callback+0x10>
    2c4c:	70 93 a8 05 	sts	0x05A8, r23	; 0x8005a8 <tc_tccr1_compa_callback+0x1>
    2c50:	60 93 a7 05 	sts	0x05A7, r22	; 0x8005a7 <tc_tccr1_compa_callback>
    2c54:	08 95       	ret
    2c56:	80 39       	cpi	r24, 0x90	; 144
    2c58:	91 05       	cpc	r25, r1
    2c5a:	29 f4       	brne	.+10     	; 0x2c66 <tc_set_compa_interrupt_callback+0x20>
    2c5c:	70 93 a0 05 	sts	0x05A0, r23	; 0x8005a0 <tc_tccr3_compa_callback+0x1>
    2c60:	60 93 9f 05 	sts	0x059F, r22	; 0x80059f <tc_tccr3_compa_callback>
    2c64:	08 95       	ret
    2c66:	80 3a       	cpi	r24, 0xA0	; 160
    2c68:	91 05       	cpc	r25, r1
    2c6a:	29 f4       	brne	.+10     	; 0x2c76 <tc_set_compa_interrupt_callback+0x30>
    2c6c:	70 93 98 05 	sts	0x0598, r23	; 0x800598 <tc_tccr4_compa_callback+0x1>
    2c70:	60 93 97 05 	sts	0x0597, r22	; 0x800597 <tc_tccr4_compa_callback>
    2c74:	08 95       	ret
    2c76:	80 32       	cpi	r24, 0x20	; 32
    2c78:	91 40       	sbci	r25, 0x01	; 1
    2c7a:	21 f4       	brne	.+8      	; 0x2c84 <tc_set_compa_interrupt_callback+0x3e>
    2c7c:	70 93 90 05 	sts	0x0590, r23	; 0x800590 <tc_tccr5_compa_callback+0x1>
    2c80:	60 93 8f 05 	sts	0x058F, r22	; 0x80058f <tc_tccr5_compa_callback>
    2c84:	08 95       	ret

00002c86 <main>:
    2c86:	0e 94 f5 05 	call	0xbea	; 0xbea <wireless_init>
    2c8a:	0e 94 3f 06 	call	0xc7e	; 0xc7e <modules_init>
    2c8e:	0e 94 31 08 	call	0x1062	; 0x1062 <pal_task>
    2c92:	0e 94 8e 0a 	call	0x151c	; 0x151c <tal_task>
    2c96:	0e 94 2b 04 	call	0x856	; 0x856 <usr_wireless_app_task>
    2c9a:	f9 cf       	rjmp	.-14     	; 0x2c8e <main+0x8>

00002c9c <tal_tx_frame_done_cb>:
    2c9c:	0c 94 1b 05 	jmp	0xa36	; 0xa36 <usr_frame_transmitted_cb>
    2ca0:	08 95       	ret

00002ca2 <tal_rx_frame_cb>:
    2ca2:	cf 93       	push	r28
    2ca4:	df 93       	push	r29
    2ca6:	ec 01       	movw	r28, r24
    2ca8:	0e 94 c5 04 	call	0x98a	; 0x98a <usr_frame_received_cb>
    2cac:	89 81       	ldd	r24, Y+1	; 0x01
    2cae:	9a 81       	ldd	r25, Y+2	; 0x02
    2cb0:	0e 94 5d 08 	call	0x10ba	; 0x10ba <bmm_buffer_free>
    2cb4:	df 91       	pop	r29
    2cb6:	cf 91       	pop	r28
    2cb8:	08 95       	ret

00002cba <__mulsi3>:
    2cba:	db 01       	movw	r26, r22
    2cbc:	8f 93       	push	r24
    2cbe:	9f 93       	push	r25
    2cc0:	6b d0       	rcall	.+214    	; 0x2d98 <__muluhisi3>
    2cc2:	bf 91       	pop	r27
    2cc4:	af 91       	pop	r26
    2cc6:	a2 9f       	mul	r26, r18
    2cc8:	80 0d       	add	r24, r0
    2cca:	91 1d       	adc	r25, r1
    2ccc:	a3 9f       	mul	r26, r19
    2cce:	90 0d       	add	r25, r0
    2cd0:	b2 9f       	mul	r27, r18
    2cd2:	90 0d       	add	r25, r0
    2cd4:	11 24       	eor	r1, r1
    2cd6:	08 95       	ret

00002cd8 <__udivmodhi4>:
    2cd8:	aa 1b       	sub	r26, r26
    2cda:	bb 1b       	sub	r27, r27
    2cdc:	51 e1       	ldi	r21, 0x11	; 17
    2cde:	07 c0       	rjmp	.+14     	; 0x2cee <__udivmodhi4_ep>

00002ce0 <__udivmodhi4_loop>:
    2ce0:	aa 1f       	adc	r26, r26
    2ce2:	bb 1f       	adc	r27, r27
    2ce4:	a6 17       	cp	r26, r22
    2ce6:	b7 07       	cpc	r27, r23
    2ce8:	10 f0       	brcs	.+4      	; 0x2cee <__udivmodhi4_ep>
    2cea:	a6 1b       	sub	r26, r22
    2cec:	b7 0b       	sbc	r27, r23

00002cee <__udivmodhi4_ep>:
    2cee:	88 1f       	adc	r24, r24
    2cf0:	99 1f       	adc	r25, r25
    2cf2:	5a 95       	dec	r21
    2cf4:	a9 f7       	brne	.-22     	; 0x2ce0 <__udivmodhi4_loop>
    2cf6:	80 95       	com	r24
    2cf8:	90 95       	com	r25
    2cfa:	bc 01       	movw	r22, r24
    2cfc:	cd 01       	movw	r24, r26
    2cfe:	08 95       	ret

00002d00 <__divmodhi4>:
    2d00:	97 fb       	bst	r25, 7
    2d02:	07 2e       	mov	r0, r23
    2d04:	16 f4       	brtc	.+4      	; 0x2d0a <__divmodhi4+0xa>
    2d06:	00 94       	com	r0
    2d08:	06 d0       	rcall	.+12     	; 0x2d16 <__divmodhi4_neg1>
    2d0a:	77 fd       	sbrc	r23, 7
    2d0c:	08 d0       	rcall	.+16     	; 0x2d1e <__divmodhi4_neg2>
    2d0e:	e4 df       	rcall	.-56     	; 0x2cd8 <__udivmodhi4>
    2d10:	07 fc       	sbrc	r0, 7
    2d12:	05 d0       	rcall	.+10     	; 0x2d1e <__divmodhi4_neg2>
    2d14:	3e f4       	brtc	.+14     	; 0x2d24 <__divmodhi4_exit>

00002d16 <__divmodhi4_neg1>:
    2d16:	90 95       	com	r25
    2d18:	81 95       	neg	r24
    2d1a:	9f 4f       	sbci	r25, 0xFF	; 255
    2d1c:	08 95       	ret

00002d1e <__divmodhi4_neg2>:
    2d1e:	70 95       	com	r23
    2d20:	61 95       	neg	r22
    2d22:	7f 4f       	sbci	r23, 0xFF	; 255

00002d24 <__divmodhi4_exit>:
    2d24:	08 95       	ret

00002d26 <__udivmodsi4>:
    2d26:	a1 e2       	ldi	r26, 0x21	; 33
    2d28:	1a 2e       	mov	r1, r26
    2d2a:	aa 1b       	sub	r26, r26
    2d2c:	bb 1b       	sub	r27, r27
    2d2e:	fd 01       	movw	r30, r26
    2d30:	0d c0       	rjmp	.+26     	; 0x2d4c <__udivmodsi4_ep>

00002d32 <__udivmodsi4_loop>:
    2d32:	aa 1f       	adc	r26, r26
    2d34:	bb 1f       	adc	r27, r27
    2d36:	ee 1f       	adc	r30, r30
    2d38:	ff 1f       	adc	r31, r31
    2d3a:	a2 17       	cp	r26, r18
    2d3c:	b3 07       	cpc	r27, r19
    2d3e:	e4 07       	cpc	r30, r20
    2d40:	f5 07       	cpc	r31, r21
    2d42:	20 f0       	brcs	.+8      	; 0x2d4c <__udivmodsi4_ep>
    2d44:	a2 1b       	sub	r26, r18
    2d46:	b3 0b       	sbc	r27, r19
    2d48:	e4 0b       	sbc	r30, r20
    2d4a:	f5 0b       	sbc	r31, r21

00002d4c <__udivmodsi4_ep>:
    2d4c:	66 1f       	adc	r22, r22
    2d4e:	77 1f       	adc	r23, r23
    2d50:	88 1f       	adc	r24, r24
    2d52:	99 1f       	adc	r25, r25
    2d54:	1a 94       	dec	r1
    2d56:	69 f7       	brne	.-38     	; 0x2d32 <__udivmodsi4_loop>
    2d58:	60 95       	com	r22
    2d5a:	70 95       	com	r23
    2d5c:	80 95       	com	r24
    2d5e:	90 95       	com	r25
    2d60:	9b 01       	movw	r18, r22
    2d62:	ac 01       	movw	r20, r24
    2d64:	bd 01       	movw	r22, r26
    2d66:	cf 01       	movw	r24, r30
    2d68:	08 95       	ret

00002d6a <__tablejump2__>:
    2d6a:	ee 0f       	add	r30, r30
    2d6c:	ff 1f       	adc	r31, r31
    2d6e:	88 1f       	adc	r24, r24
    2d70:	8b bf       	out	0x3b, r24	; 59
    2d72:	07 90       	elpm	r0, Z+
    2d74:	f6 91       	elpm	r31, Z
    2d76:	e0 2d       	mov	r30, r0
    2d78:	19 94       	eijmp

00002d7a <__umulhisi3>:
    2d7a:	a2 9f       	mul	r26, r18
    2d7c:	b0 01       	movw	r22, r0
    2d7e:	b3 9f       	mul	r27, r19
    2d80:	c0 01       	movw	r24, r0
    2d82:	a3 9f       	mul	r26, r19
    2d84:	70 0d       	add	r23, r0
    2d86:	81 1d       	adc	r24, r1
    2d88:	11 24       	eor	r1, r1
    2d8a:	91 1d       	adc	r25, r1
    2d8c:	b2 9f       	mul	r27, r18
    2d8e:	70 0d       	add	r23, r0
    2d90:	81 1d       	adc	r24, r1
    2d92:	11 24       	eor	r1, r1
    2d94:	91 1d       	adc	r25, r1
    2d96:	08 95       	ret

00002d98 <__muluhisi3>:
    2d98:	f0 df       	rcall	.-32     	; 0x2d7a <__umulhisi3>
    2d9a:	a5 9f       	mul	r26, r21
    2d9c:	90 0d       	add	r25, r0
    2d9e:	b4 9f       	mul	r27, r20
    2da0:	90 0d       	add	r25, r0
    2da2:	a4 9f       	mul	r26, r20
    2da4:	80 0d       	add	r24, r0
    2da6:	91 1d       	adc	r25, r1
    2da8:	11 24       	eor	r1, r1
    2daa:	08 95       	ret

00002dac <__adddi3_s8>:
    2dac:	00 24       	eor	r0, r0
    2dae:	a7 fd       	sbrc	r26, 7
    2db0:	00 94       	com	r0
    2db2:	2a 0f       	add	r18, r26
    2db4:	30 1d       	adc	r19, r0
    2db6:	40 1d       	adc	r20, r0
    2db8:	50 1d       	adc	r21, r0
    2dba:	60 1d       	adc	r22, r0
    2dbc:	70 1d       	adc	r23, r0
    2dbe:	80 1d       	adc	r24, r0
    2dc0:	90 1d       	adc	r25, r0
    2dc2:	08 95       	ret

00002dc4 <__cmpdi2_s8>:
    2dc4:	00 24       	eor	r0, r0
    2dc6:	a7 fd       	sbrc	r26, 7
    2dc8:	00 94       	com	r0
    2dca:	2a 17       	cp	r18, r26
    2dcc:	30 05       	cpc	r19, r0
    2dce:	40 05       	cpc	r20, r0
    2dd0:	50 05       	cpc	r21, r0
    2dd2:	60 05       	cpc	r22, r0
    2dd4:	70 05       	cpc	r23, r0
    2dd6:	80 05       	cpc	r24, r0
    2dd8:	90 05       	cpc	r25, r0
    2dda:	08 95       	ret

00002ddc <do_rand>:
    2ddc:	8f 92       	push	r8
    2dde:	9f 92       	push	r9
    2de0:	af 92       	push	r10
    2de2:	bf 92       	push	r11
    2de4:	cf 92       	push	r12
    2de6:	df 92       	push	r13
    2de8:	ef 92       	push	r14
    2dea:	ff 92       	push	r15
    2dec:	cf 93       	push	r28
    2dee:	df 93       	push	r29
    2df0:	ec 01       	movw	r28, r24
    2df2:	68 81       	ld	r22, Y
    2df4:	79 81       	ldd	r23, Y+1	; 0x01
    2df6:	8a 81       	ldd	r24, Y+2	; 0x02
    2df8:	9b 81       	ldd	r25, Y+3	; 0x03
    2dfa:	61 15       	cp	r22, r1
    2dfc:	71 05       	cpc	r23, r1
    2dfe:	81 05       	cpc	r24, r1
    2e00:	91 05       	cpc	r25, r1
    2e02:	21 f4       	brne	.+8      	; 0x2e0c <do_rand+0x30>
    2e04:	64 e2       	ldi	r22, 0x24	; 36
    2e06:	79 ed       	ldi	r23, 0xD9	; 217
    2e08:	8b e5       	ldi	r24, 0x5B	; 91
    2e0a:	97 e0       	ldi	r25, 0x07	; 7
    2e0c:	2d e1       	ldi	r18, 0x1D	; 29
    2e0e:	33 ef       	ldi	r19, 0xF3	; 243
    2e10:	41 e0       	ldi	r20, 0x01	; 1
    2e12:	50 e0       	ldi	r21, 0x00	; 0
    2e14:	cd d1       	rcall	.+922    	; 0x31b0 <__divmodsi4>
    2e16:	49 01       	movw	r8, r18
    2e18:	5a 01       	movw	r10, r20
    2e1a:	9b 01       	movw	r18, r22
    2e1c:	ac 01       	movw	r20, r24
    2e1e:	a7 ea       	ldi	r26, 0xA7	; 167
    2e20:	b1 e4       	ldi	r27, 0x41	; 65
    2e22:	ba df       	rcall	.-140    	; 0x2d98 <__muluhisi3>
    2e24:	6b 01       	movw	r12, r22
    2e26:	7c 01       	movw	r14, r24
    2e28:	ac ee       	ldi	r26, 0xEC	; 236
    2e2a:	b4 ef       	ldi	r27, 0xF4	; 244
    2e2c:	a5 01       	movw	r20, r10
    2e2e:	94 01       	movw	r18, r8
    2e30:	dd d1       	rcall	.+954    	; 0x31ec <__mulohisi3>
    2e32:	dc 01       	movw	r26, r24
    2e34:	cb 01       	movw	r24, r22
    2e36:	8c 0d       	add	r24, r12
    2e38:	9d 1d       	adc	r25, r13
    2e3a:	ae 1d       	adc	r26, r14
    2e3c:	bf 1d       	adc	r27, r15
    2e3e:	b7 ff       	sbrs	r27, 7
    2e40:	03 c0       	rjmp	.+6      	; 0x2e48 <do_rand+0x6c>
    2e42:	01 97       	sbiw	r24, 0x01	; 1
    2e44:	a1 09       	sbc	r26, r1
    2e46:	b0 48       	sbci	r27, 0x80	; 128
    2e48:	88 83       	st	Y, r24
    2e4a:	99 83       	std	Y+1, r25	; 0x01
    2e4c:	aa 83       	std	Y+2, r26	; 0x02
    2e4e:	bb 83       	std	Y+3, r27	; 0x03
    2e50:	9f 77       	andi	r25, 0x7F	; 127
    2e52:	df 91       	pop	r29
    2e54:	cf 91       	pop	r28
    2e56:	ff 90       	pop	r15
    2e58:	ef 90       	pop	r14
    2e5a:	df 90       	pop	r13
    2e5c:	cf 90       	pop	r12
    2e5e:	bf 90       	pop	r11
    2e60:	af 90       	pop	r10
    2e62:	9f 90       	pop	r9
    2e64:	8f 90       	pop	r8
    2e66:	08 95       	ret

00002e68 <rand_r>:
    2e68:	b9 cf       	rjmp	.-142    	; 0x2ddc <do_rand>

00002e6a <rand>:
    2e6a:	80 e0       	ldi	r24, 0x00	; 0
    2e6c:	92 e0       	ldi	r25, 0x02	; 2
    2e6e:	b6 cf       	rjmp	.-148    	; 0x2ddc <do_rand>

00002e70 <srand>:
    2e70:	a0 e0       	ldi	r26, 0x00	; 0
    2e72:	b0 e0       	ldi	r27, 0x00	; 0
    2e74:	80 93 00 02 	sts	0x0200, r24	; 0x800200 <__DATA_REGION_ORIGIN__>
    2e78:	90 93 01 02 	sts	0x0201, r25	; 0x800201 <__DATA_REGION_ORIGIN__+0x1>
    2e7c:	a0 93 02 02 	sts	0x0202, r26	; 0x800202 <__DATA_REGION_ORIGIN__+0x2>
    2e80:	b0 93 03 02 	sts	0x0203, r27	; 0x800203 <__DATA_REGION_ORIGIN__+0x3>
    2e84:	08 95       	ret

00002e86 <memcpy>:
    2e86:	fb 01       	movw	r30, r22
    2e88:	dc 01       	movw	r26, r24
    2e8a:	02 c0       	rjmp	.+4      	; 0x2e90 <memcpy+0xa>
    2e8c:	01 90       	ld	r0, Z+
    2e8e:	0d 92       	st	X+, r0
    2e90:	41 50       	subi	r20, 0x01	; 1
    2e92:	50 40       	sbci	r21, 0x00	; 0
    2e94:	d8 f7       	brcc	.-10     	; 0x2e8c <memcpy+0x6>
    2e96:	08 95       	ret

00002e98 <fdevopen>:
    2e98:	0f 93       	push	r16
    2e9a:	1f 93       	push	r17
    2e9c:	cf 93       	push	r28
    2e9e:	df 93       	push	r29
    2ea0:	00 97       	sbiw	r24, 0x00	; 0
    2ea2:	31 f4       	brne	.+12     	; 0x2eb0 <fdevopen+0x18>
    2ea4:	61 15       	cp	r22, r1
    2ea6:	71 05       	cpc	r23, r1
    2ea8:	19 f4       	brne	.+6      	; 0x2eb0 <fdevopen+0x18>
    2eaa:	80 e0       	ldi	r24, 0x00	; 0
    2eac:	90 e0       	ldi	r25, 0x00	; 0
    2eae:	39 c0       	rjmp	.+114    	; 0x2f22 <fdevopen+0x8a>
    2eb0:	8b 01       	movw	r16, r22
    2eb2:	ec 01       	movw	r28, r24
    2eb4:	6e e0       	ldi	r22, 0x0E	; 14
    2eb6:	70 e0       	ldi	r23, 0x00	; 0
    2eb8:	81 e0       	ldi	r24, 0x01	; 1
    2eba:	90 e0       	ldi	r25, 0x00	; 0
    2ebc:	37 d0       	rcall	.+110    	; 0x2f2c <calloc>
    2ebe:	fc 01       	movw	r30, r24
    2ec0:	89 2b       	or	r24, r25
    2ec2:	99 f3       	breq	.-26     	; 0x2eaa <fdevopen+0x12>
    2ec4:	80 e8       	ldi	r24, 0x80	; 128
    2ec6:	83 83       	std	Z+3, r24	; 0x03
    2ec8:	01 15       	cp	r16, r1
    2eca:	11 05       	cpc	r17, r1
    2ecc:	71 f0       	breq	.+28     	; 0x2eea <fdevopen+0x52>
    2ece:	13 87       	std	Z+11, r17	; 0x0b
    2ed0:	02 87       	std	Z+10, r16	; 0x0a
    2ed2:	81 e8       	ldi	r24, 0x81	; 129
    2ed4:	83 83       	std	Z+3, r24	; 0x03
    2ed6:	80 91 ae 54 	lds	r24, 0x54AE	; 0x8054ae <__iob>
    2eda:	90 91 af 54 	lds	r25, 0x54AF	; 0x8054af <__iob+0x1>
    2ede:	89 2b       	or	r24, r25
    2ee0:	21 f4       	brne	.+8      	; 0x2eea <fdevopen+0x52>
    2ee2:	f0 93 af 54 	sts	0x54AF, r31	; 0x8054af <__iob+0x1>
    2ee6:	e0 93 ae 54 	sts	0x54AE, r30	; 0x8054ae <__iob>
    2eea:	20 97       	sbiw	r28, 0x00	; 0
    2eec:	c9 f0       	breq	.+50     	; 0x2f20 <fdevopen+0x88>
    2eee:	d1 87       	std	Z+9, r29	; 0x09
    2ef0:	c0 87       	std	Z+8, r28	; 0x08
    2ef2:	83 81       	ldd	r24, Z+3	; 0x03
    2ef4:	82 60       	ori	r24, 0x02	; 2
    2ef6:	83 83       	std	Z+3, r24	; 0x03
    2ef8:	80 91 b0 54 	lds	r24, 0x54B0	; 0x8054b0 <__iob+0x2>
    2efc:	90 91 b1 54 	lds	r25, 0x54B1	; 0x8054b1 <__iob+0x3>
    2f00:	89 2b       	or	r24, r25
    2f02:	71 f4       	brne	.+28     	; 0x2f20 <fdevopen+0x88>
    2f04:	f0 93 b1 54 	sts	0x54B1, r31	; 0x8054b1 <__iob+0x3>
    2f08:	e0 93 b0 54 	sts	0x54B0, r30	; 0x8054b0 <__iob+0x2>
    2f0c:	80 91 b2 54 	lds	r24, 0x54B2	; 0x8054b2 <__iob+0x4>
    2f10:	90 91 b3 54 	lds	r25, 0x54B3	; 0x8054b3 <__iob+0x5>
    2f14:	89 2b       	or	r24, r25
    2f16:	21 f4       	brne	.+8      	; 0x2f20 <fdevopen+0x88>
    2f18:	f0 93 b3 54 	sts	0x54B3, r31	; 0x8054b3 <__iob+0x5>
    2f1c:	e0 93 b2 54 	sts	0x54B2, r30	; 0x8054b2 <__iob+0x4>
    2f20:	cf 01       	movw	r24, r30
    2f22:	df 91       	pop	r29
    2f24:	cf 91       	pop	r28
    2f26:	1f 91       	pop	r17
    2f28:	0f 91       	pop	r16
    2f2a:	08 95       	ret

00002f2c <calloc>:
    2f2c:	0f 93       	push	r16
    2f2e:	1f 93       	push	r17
    2f30:	cf 93       	push	r28
    2f32:	df 93       	push	r29
    2f34:	86 9f       	mul	r24, r22
    2f36:	80 01       	movw	r16, r0
    2f38:	87 9f       	mul	r24, r23
    2f3a:	10 0d       	add	r17, r0
    2f3c:	96 9f       	mul	r25, r22
    2f3e:	10 0d       	add	r17, r0
    2f40:	11 24       	eor	r1, r1
    2f42:	c8 01       	movw	r24, r16
    2f44:	0d d0       	rcall	.+26     	; 0x2f60 <malloc>
    2f46:	ec 01       	movw	r28, r24
    2f48:	00 97       	sbiw	r24, 0x00	; 0
    2f4a:	21 f0       	breq	.+8      	; 0x2f54 <calloc+0x28>
    2f4c:	a8 01       	movw	r20, r16
    2f4e:	60 e0       	ldi	r22, 0x00	; 0
    2f50:	70 e0       	ldi	r23, 0x00	; 0
    2f52:	27 d1       	rcall	.+590    	; 0x31a2 <memset>
    2f54:	ce 01       	movw	r24, r28
    2f56:	df 91       	pop	r29
    2f58:	cf 91       	pop	r28
    2f5a:	1f 91       	pop	r17
    2f5c:	0f 91       	pop	r16
    2f5e:	08 95       	ret

00002f60 <malloc>:
    2f60:	0f 93       	push	r16
    2f62:	1f 93       	push	r17
    2f64:	cf 93       	push	r28
    2f66:	df 93       	push	r29
    2f68:	82 30       	cpi	r24, 0x02	; 2
    2f6a:	91 05       	cpc	r25, r1
    2f6c:	10 f4       	brcc	.+4      	; 0x2f72 <malloc+0x12>
    2f6e:	82 e0       	ldi	r24, 0x02	; 2
    2f70:	90 e0       	ldi	r25, 0x00	; 0
    2f72:	e0 91 b6 54 	lds	r30, 0x54B6	; 0x8054b6 <__flp>
    2f76:	f0 91 b7 54 	lds	r31, 0x54B7	; 0x8054b7 <__flp+0x1>
    2f7a:	20 e0       	ldi	r18, 0x00	; 0
    2f7c:	30 e0       	ldi	r19, 0x00	; 0
    2f7e:	a0 e0       	ldi	r26, 0x00	; 0
    2f80:	b0 e0       	ldi	r27, 0x00	; 0
    2f82:	30 97       	sbiw	r30, 0x00	; 0
    2f84:	19 f1       	breq	.+70     	; 0x2fcc <malloc+0x6c>
    2f86:	40 81       	ld	r20, Z
    2f88:	51 81       	ldd	r21, Z+1	; 0x01
    2f8a:	02 81       	ldd	r16, Z+2	; 0x02
    2f8c:	13 81       	ldd	r17, Z+3	; 0x03
    2f8e:	48 17       	cp	r20, r24
    2f90:	59 07       	cpc	r21, r25
    2f92:	c8 f0       	brcs	.+50     	; 0x2fc6 <malloc+0x66>
    2f94:	84 17       	cp	r24, r20
    2f96:	95 07       	cpc	r25, r21
    2f98:	69 f4       	brne	.+26     	; 0x2fb4 <malloc+0x54>
    2f9a:	10 97       	sbiw	r26, 0x00	; 0
    2f9c:	31 f0       	breq	.+12     	; 0x2faa <malloc+0x4a>
    2f9e:	12 96       	adiw	r26, 0x02	; 2
    2fa0:	0c 93       	st	X, r16
    2fa2:	12 97       	sbiw	r26, 0x02	; 2
    2fa4:	13 96       	adiw	r26, 0x03	; 3
    2fa6:	1c 93       	st	X, r17
    2fa8:	27 c0       	rjmp	.+78     	; 0x2ff8 <malloc+0x98>
    2faa:	00 93 b6 54 	sts	0x54B6, r16	; 0x8054b6 <__flp>
    2fae:	10 93 b7 54 	sts	0x54B7, r17	; 0x8054b7 <__flp+0x1>
    2fb2:	22 c0       	rjmp	.+68     	; 0x2ff8 <malloc+0x98>
    2fb4:	21 15       	cp	r18, r1
    2fb6:	31 05       	cpc	r19, r1
    2fb8:	19 f0       	breq	.+6      	; 0x2fc0 <malloc+0x60>
    2fba:	42 17       	cp	r20, r18
    2fbc:	53 07       	cpc	r21, r19
    2fbe:	18 f4       	brcc	.+6      	; 0x2fc6 <malloc+0x66>
    2fc0:	9a 01       	movw	r18, r20
    2fc2:	bd 01       	movw	r22, r26
    2fc4:	ef 01       	movw	r28, r30
    2fc6:	df 01       	movw	r26, r30
    2fc8:	f8 01       	movw	r30, r16
    2fca:	db cf       	rjmp	.-74     	; 0x2f82 <malloc+0x22>
    2fcc:	21 15       	cp	r18, r1
    2fce:	31 05       	cpc	r19, r1
    2fd0:	f9 f0       	breq	.+62     	; 0x3010 <malloc+0xb0>
    2fd2:	28 1b       	sub	r18, r24
    2fd4:	39 0b       	sbc	r19, r25
    2fd6:	24 30       	cpi	r18, 0x04	; 4
    2fd8:	31 05       	cpc	r19, r1
    2fda:	80 f4       	brcc	.+32     	; 0x2ffc <malloc+0x9c>
    2fdc:	8a 81       	ldd	r24, Y+2	; 0x02
    2fde:	9b 81       	ldd	r25, Y+3	; 0x03
    2fe0:	61 15       	cp	r22, r1
    2fe2:	71 05       	cpc	r23, r1
    2fe4:	21 f0       	breq	.+8      	; 0x2fee <malloc+0x8e>
    2fe6:	fb 01       	movw	r30, r22
    2fe8:	93 83       	std	Z+3, r25	; 0x03
    2fea:	82 83       	std	Z+2, r24	; 0x02
    2fec:	04 c0       	rjmp	.+8      	; 0x2ff6 <malloc+0x96>
    2fee:	90 93 b7 54 	sts	0x54B7, r25	; 0x8054b7 <__flp+0x1>
    2ff2:	80 93 b6 54 	sts	0x54B6, r24	; 0x8054b6 <__flp>
    2ff6:	fe 01       	movw	r30, r28
    2ff8:	32 96       	adiw	r30, 0x02	; 2
    2ffa:	44 c0       	rjmp	.+136    	; 0x3084 <malloc+0x124>
    2ffc:	fe 01       	movw	r30, r28
    2ffe:	e2 0f       	add	r30, r18
    3000:	f3 1f       	adc	r31, r19
    3002:	81 93       	st	Z+, r24
    3004:	91 93       	st	Z+, r25
    3006:	22 50       	subi	r18, 0x02	; 2
    3008:	31 09       	sbc	r19, r1
    300a:	39 83       	std	Y+1, r19	; 0x01
    300c:	28 83       	st	Y, r18
    300e:	3a c0       	rjmp	.+116    	; 0x3084 <malloc+0x124>
    3010:	20 91 b4 54 	lds	r18, 0x54B4	; 0x8054b4 <__brkval>
    3014:	30 91 b5 54 	lds	r19, 0x54B5	; 0x8054b5 <__brkval+0x1>
    3018:	23 2b       	or	r18, r19
    301a:	41 f4       	brne	.+16     	; 0x302c <malloc+0xcc>
    301c:	20 91 06 02 	lds	r18, 0x0206	; 0x800206 <__malloc_heap_start>
    3020:	30 91 07 02 	lds	r19, 0x0207	; 0x800207 <__malloc_heap_start+0x1>
    3024:	30 93 b5 54 	sts	0x54B5, r19	; 0x8054b5 <__brkval+0x1>
    3028:	20 93 b4 54 	sts	0x54B4, r18	; 0x8054b4 <__brkval>
    302c:	20 91 04 02 	lds	r18, 0x0204	; 0x800204 <__malloc_heap_end>
    3030:	30 91 05 02 	lds	r19, 0x0205	; 0x800205 <__malloc_heap_end+0x1>
    3034:	21 15       	cp	r18, r1
    3036:	31 05       	cpc	r19, r1
    3038:	41 f4       	brne	.+16     	; 0x304a <malloc+0xea>
    303a:	2d b7       	in	r18, 0x3d	; 61
    303c:	3e b7       	in	r19, 0x3e	; 62
    303e:	40 91 08 02 	lds	r20, 0x0208	; 0x800208 <__malloc_margin>
    3042:	50 91 09 02 	lds	r21, 0x0209	; 0x800209 <__malloc_margin+0x1>
    3046:	24 1b       	sub	r18, r20
    3048:	35 0b       	sbc	r19, r21
    304a:	e0 91 b4 54 	lds	r30, 0x54B4	; 0x8054b4 <__brkval>
    304e:	f0 91 b5 54 	lds	r31, 0x54B5	; 0x8054b5 <__brkval+0x1>
    3052:	e2 17       	cp	r30, r18
    3054:	f3 07       	cpc	r31, r19
    3056:	a0 f4       	brcc	.+40     	; 0x3080 <malloc+0x120>
    3058:	2e 1b       	sub	r18, r30
    305a:	3f 0b       	sbc	r19, r31
    305c:	28 17       	cp	r18, r24
    305e:	39 07       	cpc	r19, r25
    3060:	78 f0       	brcs	.+30     	; 0x3080 <malloc+0x120>
    3062:	ac 01       	movw	r20, r24
    3064:	4e 5f       	subi	r20, 0xFE	; 254
    3066:	5f 4f       	sbci	r21, 0xFF	; 255
    3068:	24 17       	cp	r18, r20
    306a:	35 07       	cpc	r19, r21
    306c:	48 f0       	brcs	.+18     	; 0x3080 <malloc+0x120>
    306e:	4e 0f       	add	r20, r30
    3070:	5f 1f       	adc	r21, r31
    3072:	50 93 b5 54 	sts	0x54B5, r21	; 0x8054b5 <__brkval+0x1>
    3076:	40 93 b4 54 	sts	0x54B4, r20	; 0x8054b4 <__brkval>
    307a:	81 93       	st	Z+, r24
    307c:	91 93       	st	Z+, r25
    307e:	02 c0       	rjmp	.+4      	; 0x3084 <malloc+0x124>
    3080:	e0 e0       	ldi	r30, 0x00	; 0
    3082:	f0 e0       	ldi	r31, 0x00	; 0
    3084:	cf 01       	movw	r24, r30
    3086:	df 91       	pop	r29
    3088:	cf 91       	pop	r28
    308a:	1f 91       	pop	r17
    308c:	0f 91       	pop	r16
    308e:	08 95       	ret

00003090 <free>:
    3090:	cf 93       	push	r28
    3092:	df 93       	push	r29
    3094:	00 97       	sbiw	r24, 0x00	; 0
    3096:	09 f4       	brne	.+2      	; 0x309a <free+0xa>
    3098:	81 c0       	rjmp	.+258    	; 0x319c <free+0x10c>
    309a:	fc 01       	movw	r30, r24
    309c:	32 97       	sbiw	r30, 0x02	; 2
    309e:	13 82       	std	Z+3, r1	; 0x03
    30a0:	12 82       	std	Z+2, r1	; 0x02
    30a2:	a0 91 b6 54 	lds	r26, 0x54B6	; 0x8054b6 <__flp>
    30a6:	b0 91 b7 54 	lds	r27, 0x54B7	; 0x8054b7 <__flp+0x1>
    30aa:	10 97       	sbiw	r26, 0x00	; 0
    30ac:	81 f4       	brne	.+32     	; 0x30ce <free+0x3e>
    30ae:	20 81       	ld	r18, Z
    30b0:	31 81       	ldd	r19, Z+1	; 0x01
    30b2:	82 0f       	add	r24, r18
    30b4:	93 1f       	adc	r25, r19
    30b6:	20 91 b4 54 	lds	r18, 0x54B4	; 0x8054b4 <__brkval>
    30ba:	30 91 b5 54 	lds	r19, 0x54B5	; 0x8054b5 <__brkval+0x1>
    30be:	28 17       	cp	r18, r24
    30c0:	39 07       	cpc	r19, r25
    30c2:	51 f5       	brne	.+84     	; 0x3118 <free+0x88>
    30c4:	f0 93 b5 54 	sts	0x54B5, r31	; 0x8054b5 <__brkval+0x1>
    30c8:	e0 93 b4 54 	sts	0x54B4, r30	; 0x8054b4 <__brkval>
    30cc:	67 c0       	rjmp	.+206    	; 0x319c <free+0x10c>
    30ce:	ed 01       	movw	r28, r26
    30d0:	20 e0       	ldi	r18, 0x00	; 0
    30d2:	30 e0       	ldi	r19, 0x00	; 0
    30d4:	ce 17       	cp	r28, r30
    30d6:	df 07       	cpc	r29, r31
    30d8:	40 f4       	brcc	.+16     	; 0x30ea <free+0x5a>
    30da:	4a 81       	ldd	r20, Y+2	; 0x02
    30dc:	5b 81       	ldd	r21, Y+3	; 0x03
    30de:	9e 01       	movw	r18, r28
    30e0:	41 15       	cp	r20, r1
    30e2:	51 05       	cpc	r21, r1
    30e4:	f1 f0       	breq	.+60     	; 0x3122 <free+0x92>
    30e6:	ea 01       	movw	r28, r20
    30e8:	f5 cf       	rjmp	.-22     	; 0x30d4 <free+0x44>
    30ea:	d3 83       	std	Z+3, r29	; 0x03
    30ec:	c2 83       	std	Z+2, r28	; 0x02
    30ee:	40 81       	ld	r20, Z
    30f0:	51 81       	ldd	r21, Z+1	; 0x01
    30f2:	84 0f       	add	r24, r20
    30f4:	95 1f       	adc	r25, r21
    30f6:	c8 17       	cp	r28, r24
    30f8:	d9 07       	cpc	r29, r25
    30fa:	59 f4       	brne	.+22     	; 0x3112 <free+0x82>
    30fc:	88 81       	ld	r24, Y
    30fe:	99 81       	ldd	r25, Y+1	; 0x01
    3100:	84 0f       	add	r24, r20
    3102:	95 1f       	adc	r25, r21
    3104:	02 96       	adiw	r24, 0x02	; 2
    3106:	91 83       	std	Z+1, r25	; 0x01
    3108:	80 83       	st	Z, r24
    310a:	8a 81       	ldd	r24, Y+2	; 0x02
    310c:	9b 81       	ldd	r25, Y+3	; 0x03
    310e:	93 83       	std	Z+3, r25	; 0x03
    3110:	82 83       	std	Z+2, r24	; 0x02
    3112:	21 15       	cp	r18, r1
    3114:	31 05       	cpc	r19, r1
    3116:	29 f4       	brne	.+10     	; 0x3122 <free+0x92>
    3118:	f0 93 b7 54 	sts	0x54B7, r31	; 0x8054b7 <__flp+0x1>
    311c:	e0 93 b6 54 	sts	0x54B6, r30	; 0x8054b6 <__flp>
    3120:	3d c0       	rjmp	.+122    	; 0x319c <free+0x10c>
    3122:	e9 01       	movw	r28, r18
    3124:	fb 83       	std	Y+3, r31	; 0x03
    3126:	ea 83       	std	Y+2, r30	; 0x02
    3128:	49 91       	ld	r20, Y+
    312a:	59 91       	ld	r21, Y+
    312c:	c4 0f       	add	r28, r20
    312e:	d5 1f       	adc	r29, r21
    3130:	ec 17       	cp	r30, r28
    3132:	fd 07       	cpc	r31, r29
    3134:	61 f4       	brne	.+24     	; 0x314e <free+0xbe>
    3136:	80 81       	ld	r24, Z
    3138:	91 81       	ldd	r25, Z+1	; 0x01
    313a:	84 0f       	add	r24, r20
    313c:	95 1f       	adc	r25, r21
    313e:	02 96       	adiw	r24, 0x02	; 2
    3140:	e9 01       	movw	r28, r18
    3142:	99 83       	std	Y+1, r25	; 0x01
    3144:	88 83       	st	Y, r24
    3146:	82 81       	ldd	r24, Z+2	; 0x02
    3148:	93 81       	ldd	r25, Z+3	; 0x03
    314a:	9b 83       	std	Y+3, r25	; 0x03
    314c:	8a 83       	std	Y+2, r24	; 0x02
    314e:	e0 e0       	ldi	r30, 0x00	; 0
    3150:	f0 e0       	ldi	r31, 0x00	; 0
    3152:	12 96       	adiw	r26, 0x02	; 2
    3154:	8d 91       	ld	r24, X+
    3156:	9c 91       	ld	r25, X
    3158:	13 97       	sbiw	r26, 0x03	; 3
    315a:	00 97       	sbiw	r24, 0x00	; 0
    315c:	19 f0       	breq	.+6      	; 0x3164 <free+0xd4>
    315e:	fd 01       	movw	r30, r26
    3160:	dc 01       	movw	r26, r24
    3162:	f7 cf       	rjmp	.-18     	; 0x3152 <free+0xc2>
    3164:	8d 91       	ld	r24, X+
    3166:	9c 91       	ld	r25, X
    3168:	11 97       	sbiw	r26, 0x01	; 1
    316a:	9d 01       	movw	r18, r26
    316c:	2e 5f       	subi	r18, 0xFE	; 254
    316e:	3f 4f       	sbci	r19, 0xFF	; 255
    3170:	82 0f       	add	r24, r18
    3172:	93 1f       	adc	r25, r19
    3174:	20 91 b4 54 	lds	r18, 0x54B4	; 0x8054b4 <__brkval>
    3178:	30 91 b5 54 	lds	r19, 0x54B5	; 0x8054b5 <__brkval+0x1>
    317c:	28 17       	cp	r18, r24
    317e:	39 07       	cpc	r19, r25
    3180:	69 f4       	brne	.+26     	; 0x319c <free+0x10c>
    3182:	30 97       	sbiw	r30, 0x00	; 0
    3184:	29 f4       	brne	.+10     	; 0x3190 <free+0x100>
    3186:	10 92 b7 54 	sts	0x54B7, r1	; 0x8054b7 <__flp+0x1>
    318a:	10 92 b6 54 	sts	0x54B6, r1	; 0x8054b6 <__flp>
    318e:	02 c0       	rjmp	.+4      	; 0x3194 <free+0x104>
    3190:	13 82       	std	Z+3, r1	; 0x03
    3192:	12 82       	std	Z+2, r1	; 0x02
    3194:	b0 93 b5 54 	sts	0x54B5, r27	; 0x8054b5 <__brkval+0x1>
    3198:	a0 93 b4 54 	sts	0x54B4, r26	; 0x8054b4 <__brkval>
    319c:	df 91       	pop	r29
    319e:	cf 91       	pop	r28
    31a0:	08 95       	ret

000031a2 <memset>:
    31a2:	dc 01       	movw	r26, r24
    31a4:	01 c0       	rjmp	.+2      	; 0x31a8 <memset+0x6>
    31a6:	6d 93       	st	X+, r22
    31a8:	41 50       	subi	r20, 0x01	; 1
    31aa:	50 40       	sbci	r21, 0x00	; 0
    31ac:	e0 f7       	brcc	.-8      	; 0x31a6 <memset+0x4>
    31ae:	08 95       	ret

000031b0 <__divmodsi4>:
    31b0:	05 2e       	mov	r0, r21
    31b2:	97 fb       	bst	r25, 7
    31b4:	16 f4       	brtc	.+4      	; 0x31ba <__divmodsi4+0xa>
    31b6:	00 94       	com	r0
    31b8:	0f d0       	rcall	.+30     	; 0x31d8 <__negsi2>
    31ba:	57 fd       	sbrc	r21, 7
    31bc:	05 d0       	rcall	.+10     	; 0x31c8 <__divmodsi4_neg2>
    31be:	b3 dd       	rcall	.-1178   	; 0x2d26 <__udivmodsi4>
    31c0:	07 fc       	sbrc	r0, 7
    31c2:	02 d0       	rcall	.+4      	; 0x31c8 <__divmodsi4_neg2>
    31c4:	46 f4       	brtc	.+16     	; 0x31d6 <__divmodsi4_exit>
    31c6:	08 c0       	rjmp	.+16     	; 0x31d8 <__negsi2>

000031c8 <__divmodsi4_neg2>:
    31c8:	50 95       	com	r21
    31ca:	40 95       	com	r20
    31cc:	30 95       	com	r19
    31ce:	21 95       	neg	r18
    31d0:	3f 4f       	sbci	r19, 0xFF	; 255
    31d2:	4f 4f       	sbci	r20, 0xFF	; 255
    31d4:	5f 4f       	sbci	r21, 0xFF	; 255

000031d6 <__divmodsi4_exit>:
    31d6:	08 95       	ret

000031d8 <__negsi2>:
    31d8:	90 95       	com	r25
    31da:	80 95       	com	r24
    31dc:	70 95       	com	r23
    31de:	61 95       	neg	r22
    31e0:	7f 4f       	sbci	r23, 0xFF	; 255
    31e2:	8f 4f       	sbci	r24, 0xFF	; 255
    31e4:	9f 4f       	sbci	r25, 0xFF	; 255
    31e6:	08 95       	ret

000031e8 <__mulshisi3>:
    31e8:	b7 ff       	sbrs	r27, 7
    31ea:	d6 cd       	rjmp	.-1108   	; 0x2d98 <__muluhisi3>

000031ec <__mulohisi3>:
    31ec:	d5 dd       	rcall	.-1110   	; 0x2d98 <__muluhisi3>
    31ee:	82 1b       	sub	r24, r18
    31f0:	93 0b       	sbc	r25, r19
    31f2:	08 95       	ret

000031f4 <_exit>:
    31f4:	f8 94       	cli

000031f6 <__stop_program>:
    31f6:	ff cf       	rjmp	.-2      	; 0x31f6 <__stop_program>
